ARM GAS  C:\Users\Megaport\AppData\Local\Temp\ccfM3MUg.s 			page 1


   1              		.cpu cortex-m4
   2              		.eabi_attribute 27, 1
   3              		.eabi_attribute 28, 1
   4              		.eabi_attribute 20, 1
   5              		.eabi_attribute 21, 1
   6              		.eabi_attribute 23, 3
   7              		.eabi_attribute 24, 1
   8              		.eabi_attribute 25, 1
   9              		.eabi_attribute 26, 1
  10              		.eabi_attribute 30, 6
  11              		.eabi_attribute 34, 1
  12              		.eabi_attribute 18, 4
  13              		.file	"main.c"
  14              		.text
  15              	.Ltext0:
  16              		.cfi_sections	.debug_frame
  17              		.section	.rodata
  18              		.align	2
  19              	.LC0:
  20 0000 53544152 		.ascii	"START\000"
  20      5400
  21              		.section	.text.SendUint8ToComputer,"ax",%progbits
  22              		.align	1
  23              		.p2align 4,,15
  24              		.global	SendUint8ToComputer
  25              		.syntax unified
  26              		.thumb
  27              		.thumb_func
  28              		.fpu fpv4-sp-d16
  29              		.type	SendUint8ToComputer, %function
  30              	SendUint8ToComputer:
  31              	.LFB260:
  32              		.file 1 "main.c"
  33              		.loc 1 19 0
  34              		.cfi_startproc
  35              		@ args = 0, pretend = 0, frame = 16
  36              		@ frame_needed = 0, uses_anonymous_args = 0
  37 0000 00B5     		push	{lr}
  38              		.cfi_def_cfa_offset 4
  39              		.cfi_offset 14, -4
  40 0002 85B0     		sub	sp, sp, #20
  41              		.cfi_def_cfa_offset 24
  42 0004 0190     		str	r0, [sp, #4]
  43 0006 0B46     		mov	r3, r1
  44 0008 ADF80230 		strh	r3, [sp, #2]	@ movhi
  45              		.loc 1 19 0
  46 000c 124B     		ldr	r3, .L3
  47 000e 1B68     		ldr	r3, [r3]
  48 0010 0393     		str	r3, [sp, #12]
  49              		.loc 1 20 0
  50 0012 124B     		ldr	r3, .L3+4
  51 0014 1B68     		ldr	r3, [r3]
  52 0016 1B68     		ldr	r3, [r3]
  53 0018 0522     		movs	r2, #5
  54 001a 1149     		ldr	r1, .L3+8
  55 001c 0F48     		ldr	r0, .L3+4
  56 001e 9847     		blx	r3
ARM GAS  C:\Users\Megaport\AppData\Local\Temp\ccfM3MUg.s 			page 2


  57              	.LVL0:
  58              		.loc 1 21 0
  59 0020 0E4B     		ldr	r3, .L3+4
  60 0022 1B68     		ldr	r3, [r3]
  61 0024 1B68     		ldr	r3, [r3]
  62 0026 0DF10201 		add	r1, sp, #2
  63 002a 0222     		movs	r2, #2
  64 002c 0B48     		ldr	r0, .L3+4
  65 002e 9847     		blx	r3
  66              	.LVL1:
  67              		.loc 1 22 0
  68 0030 0A4B     		ldr	r3, .L3+4
  69 0032 1B68     		ldr	r3, [r3]
  70 0034 1B68     		ldr	r3, [r3]
  71 0036 BDF80220 		ldrh	r2, [sp, #2]
  72 003a 0199     		ldr	r1, [sp, #4]
  73 003c 0748     		ldr	r0, .L3+4
  74 003e 9847     		blx	r3
  75              	.LVL2:
  76              		.loc 1 23 0
  77 0040 00BF     		nop
  78 0042 054B     		ldr	r3, .L3
  79 0044 039A     		ldr	r2, [sp, #12]
  80 0046 1B68     		ldr	r3, [r3]
  81 0048 9A42     		cmp	r2, r3
  82 004a 01D0     		beq	.L2
  83 004c FFF7FEFF 		bl	__stack_chk_fail
  84              	.L2:
  85 0050 05B0     		add	sp, sp, #20
  86              		.cfi_def_cfa_offset 4
  87              		@ sp needed
  88 0052 5DF804FB 		ldr	pc, [sp], #4
  89              	.L4:
  90 0056 00BF     		.align	2
  91              	.L3:
  92 0058 00000000 		.word	__stack_chk_guard
  93 005c 00000000 		.word	SD3
  94 0060 00000000 		.word	.LC0
  95              		.cfi_endproc
  96              	.LFE260:
  97              		.size	SendUint8ToComputer, .-SendUint8ToComputer
  98              		.section	.text.serial_start,"ax",%progbits
  99              		.align	1
 100              		.p2align 4,,15
 101              		.syntax unified
 102              		.thumb
 103              		.thumb_func
 104              		.fpu fpv4-sp-d16
 105              		.type	serial_start, %function
 106              	serial_start:
 107              	.LFB261:
 108              		.loc 1 26 0
 109              		.cfi_startproc
 110              		@ args = 0, pretend = 0, frame = 8
 111              		@ frame_needed = 0, uses_anonymous_args = 0
 112 0000 00B5     		push	{lr}
 113              		.cfi_def_cfa_offset 4
ARM GAS  C:\Users\Megaport\AppData\Local\Temp\ccfM3MUg.s 			page 3


 114              		.cfi_offset 14, -4
 115 0002 83B0     		sub	sp, sp, #12
 116              		.cfi_def_cfa_offset 16
 117              		.loc 1 26 0
 118 0004 084B     		ldr	r3, .L7
 119 0006 1B68     		ldr	r3, [r3]
 120 0008 0193     		str	r3, [sp, #4]
 121              		.loc 1 34 0
 122 000a 0849     		ldr	r1, .L7+4
 123 000c 0848     		ldr	r0, .L7+8
 124 000e FFF7FEFF 		bl	sdStart
 125              		.loc 1 35 0
 126 0012 00BF     		nop
 127 0014 044B     		ldr	r3, .L7
 128 0016 019A     		ldr	r2, [sp, #4]
 129 0018 1B68     		ldr	r3, [r3]
 130 001a 9A42     		cmp	r2, r3
 131 001c 01D0     		beq	.L6
 132 001e FFF7FEFF 		bl	__stack_chk_fail
 133              	.L6:
 134 0022 03B0     		add	sp, sp, #12
 135              		.cfi_def_cfa_offset 4
 136              		@ sp needed
 137 0024 5DF804FB 		ldr	pc, [sp], #4
 138              	.L8:
 139              		.align	2
 140              	.L7:
 141 0028 00000000 		.word	__stack_chk_guard
 142 002c 00000000 		.word	ser_cfg.12797
 143 0030 00000000 		.word	SD3
 144              		.cfi_endproc
 145              	.LFE261:
 146              		.size	serial_start, .-serial_start
 147              		.section	.text.main,"ax",%progbits
 148              		.align	1
 149              		.p2align 4,,15
 150              		.global	main
 151              		.syntax unified
 152              		.thumb
 153              		.thumb_func
 154              		.fpu fpv4-sp-d16
 155              		.type	main, %function
 156              	main:
 157              	.LFB262:
 158              		.loc 1 38 0
 159              		.cfi_startproc
 160              		@ args = 0, pretend = 0, frame = 8
 161              		@ frame_needed = 0, uses_anonymous_args = 0
 162 0000 00B5     		push	{lr}
 163              		.cfi_def_cfa_offset 4
 164              		.cfi_offset 14, -4
 165 0002 83B0     		sub	sp, sp, #12
 166              		.cfi_def_cfa_offset 16
 167              		.loc 1 38 0
 168 0004 0D4B     		ldr	r3, .L12
 169 0006 1B68     		ldr	r3, [r3]
 170 0008 0193     		str	r3, [sp, #4]
ARM GAS  C:\Users\Megaport\AppData\Local\Temp\ccfM3MUg.s 			page 4


 171              		.loc 1 40 0
 172 000a FFF7FEFF 		bl	halInit
 173              		.loc 1 41 0
 174 000e FFF7FEFF 		bl	chSysInit
 175              		.loc 1 42 0
 176 0012 FFF7FEFF 		bl	mpu_init
 177              		.loc 1 45 0
 178 0016 FFF7FEFF 		bl	serial_start
 179              		.loc 1 47 0
 180 001a FFF7FEFF 		bl	usb_start
 181              		.loc 1 49 0
 182 001e FFF7FEFF 		bl	dcmi_start
 183              		.loc 1 50 0
 184 0022 FFF7FEFF 		bl	po8030_start
 185              		.loc 1 52 0
 186 0026 FFF7FEFF 		bl	motors_init
 187              		.loc 1 55 0
 188 002a FFF7FEFF 		bl	pi_regulator_start
 189              		.loc 1 56 0
 190 002e FFF7FEFF 		bl	process_image_start
 191              	.L10:
 192              		.loc 1 61 0 discriminator 1
 193 0032 4FF47A70 		mov	r0, #1000
 194 0036 FFF7FEFF 		bl	chThdSleep
 195 003a FAE7     		b	.L10
 196              	.L13:
 197              		.align	2
 198              	.L12:
 199 003c 00000000 		.word	__stack_chk_guard
 200              		.cfi_endproc
 201              	.LFE262:
 202              		.size	main, .-main
 203              		.global	__stack_chk_guard
 204              		.section	.data.__stack_chk_guard,"aw",%progbits
 205              		.align	2
 206              		.type	__stack_chk_guard, %object
 207              		.size	__stack_chk_guard, 4
 208              	__stack_chk_guard:
 209 0000 96E3DEE2 		.word	-488709226
 210              		.section	.rodata
 211 0006 0000     		.align	2
 212              	.LC1:
 213 0008 53746163 		.ascii	"Stack smashing detected\000"
 213      6B20736D 
 213      61736869 
 213      6E672064 
 213      65746563 
 214              		.section	.text.__stack_chk_fail,"ax",%progbits
 215              		.align	1
 216              		.p2align 4,,15
 217              		.global	__stack_chk_fail
 218              		.syntax unified
 219              		.thumb
 220              		.thumb_func
 221              		.fpu fpv4-sp-d16
 222              		.type	__stack_chk_fail, %function
 223              	__stack_chk_fail:
ARM GAS  C:\Users\Megaport\AppData\Local\Temp\ccfM3MUg.s 			page 5


 224              	.LFB263:
 225              		.loc 1 69 0
 226              		.cfi_startproc
 227              		@ args = 0, pretend = 0, frame = 8
 228              		@ frame_needed = 0, uses_anonymous_args = 0
 229 0000 00B5     		push	{lr}
 230              		.cfi_def_cfa_offset 4
 231              		.cfi_offset 14, -4
 232 0002 83B0     		sub	sp, sp, #12
 233              		.cfi_def_cfa_offset 16
 234              		.loc 1 69 0
 235 0004 084B     		ldr	r3, .L16
 236 0006 1B68     		ldr	r3, [r3]
 237 0008 0193     		str	r3, [sp, #4]
 238              		.loc 1 70 0
 239 000a 0848     		ldr	r0, .L16+4
 240 000c FFF7FEFF 		bl	chSysHalt
 241              		.loc 1 71 0
 242 0010 00BF     		nop
 243 0012 054B     		ldr	r3, .L16
 244 0014 019A     		ldr	r2, [sp, #4]
 245 0016 1B68     		ldr	r3, [r3]
 246 0018 9A42     		cmp	r2, r3
 247 001a 01D0     		beq	.L15
 248 001c FFF7FEFF 		bl	__stack_chk_fail
 249              	.L15:
 250 0020 03B0     		add	sp, sp, #12
 251              		.cfi_def_cfa_offset 4
 252              		@ sp needed
 253 0022 5DF804FB 		ldr	pc, [sp], #4
 254              	.L17:
 255 0026 00BF     		.align	2
 256              	.L16:
 257 0028 00000000 		.word	__stack_chk_guard
 258 002c 08000000 		.word	.LC1
 259              		.cfi_endproc
 260              	.LFE263:
 261              		.size	__stack_chk_fail, .-__stack_chk_fail
 262              		.section	.data.ser_cfg.12797,"aw",%progbits
 263              		.align	2
 264              		.type	ser_cfg.12797, %object
 265              		.size	ser_cfg.12797, 12
 266              	ser_cfg.12797:
 267 0000 00C20100 		.word	115200
 268 0004 0000     		.short	0
 269 0006 0000     		.short	0
 270 0008 0000     		.short	0
 271 000a 0000     		.space	2
 272              		.text
 273              	.Letext0:
 274              		.file 2 "c:\\users\\megaport\\documents\\eclipse_e-puck2\\eclipse_e-puck2\\tools\\gcc-arm-none-eab
 275              		.file 3 "c:\\users\\megaport\\documents\\eclipse_e-puck2\\eclipse_e-puck2\\tools\\gcc-arm-none-eab
 276              		.file 4 "c:\\users\\megaport\\documents\\eclipse_e-puck2\\eclipse_e-puck2\\tools\\gcc-arm-none-eab
 277              		.file 5 "c:\\users\\megaport\\documents\\eclipse_e-puck2\\eclipse_e-puck2\\tools\\gcc-arm-none-eab
 278              		.file 6 "c:\\users\\megaport\\documents\\eclipse_e-puck2\\eclipse_e-puck2\\tools\\gcc-arm-none-eab
 279              		.file 7 "c:\\users\\megaport\\documents\\eclipse_e-puck2\\eclipse_e-puck2\\tools\\gcc-arm-none-eab
 280              		.file 8 "c:\\users\\megaport\\documents\\eclipse_e-puck2\\eclipse_e-puck2\\tools\\gcc-arm-none-eab
ARM GAS  C:\Users\Megaport\AppData\Local\Temp\ccfM3MUg.s 			page 6


 281              		.file 9 "c:\\users\\megaport\\documents\\eclipse_e-puck2\\eclipse_e-puck2\\tools\\gcc-arm-none-eab
 282              		.file 10 "../e-puck2_main-processor/ChibiOS//os/rt/ports/ARMCMx/compilers/GCC/chtypes.h"
 283              		.file 11 "../e-puck2_main-processor/ChibiOS//os/rt/include/chsystypes.h"
 284              		.file 12 "../e-puck2_main-processor/ChibiOS//os/rt/include/chschd.h"
 285              		.file 13 "../e-puck2_main-processor/ChibiOS//os/ext/CMSIS/include/core_cm4.h"
 286              		.file 14 "../e-puck2_main-processor/ChibiOS//os/ext/CMSIS/ST/system_stm32f4xx.h"
 287              		.file 15 "../e-puck2_main-processor/ChibiOS//os/ext/CMSIS/ST/stm32f407xx.h"
 288              		.file 16 "../e-puck2_main-processor/ChibiOS//os/rt/ports/ARMCMx/chcore.h"
 289              		.file 17 "../e-puck2_main-processor/ChibiOS//os/rt/ports/ARMCMx/chcore_v7m.h"
 290              		.file 18 "../e-puck2_main-processor/ChibiOS//os/rt/include/chdebug.h"
 291              		.file 19 "../e-puck2_main-processor/ChibiOS//os/rt/include/chtm.h"
 292              		.file 20 "../e-puck2_main-processor/ChibiOS//os/rt/include/chstats.h"
 293              		.file 21 "../e-puck2_main-processor/ChibiOS//os/rt/include/chsem.h"
 294              		.file 22 "../e-puck2_main-processor/ChibiOS//os/rt/include/chmtx.h"
 295              		.file 23 "../e-puck2_main-processor/ChibiOS//os/rt/include/chregistry.h"
 296              		.file 24 "../e-puck2_main-processor/ChibiOS//os/rt/include/chevents.h"
 297              		.file 25 "../e-puck2_main-processor/ChibiOS//os/rt/include/chqueues.h"
 298              		.file 26 "../e-puck2_main-processor/ChibiOS//os/rt/include/chstreams.h"
 299              		.file 27 "../e-puck2_main-processor/ChibiOS//os/hal/ports/STM32/STM32F4xx/stm32_dma.h"
 300              		.file 28 "../e-puck2_main-processor/ChibiOS//os/hal/include/hal_ioblock.h"
 301              		.file 29 "../e-puck2_main-processor/ChibiOS//os/hal/ports/STM32/LLD/GPIOv2/pal_lld.h"
 302              		.file 30 "../e-puck2_main-processor/ChibiOS//os/hal/include/adc.h"
 303              		.file 31 "../e-puck2_main-processor/ChibiOS//os/hal/ports/STM32/STM32F4xx/adc_lld.h"
 304              		.file 32 "../e-puck2_main-processor/ChibiOS//os/hal/include/can.h"
 305              		.file 33 "../e-puck2_main-processor/ChibiOS//os/hal/ports/STM32/LLD/can_lld.h"
 306              		.file 34 "../e-puck2_main-processor/ChibiOS//os/hal/include/dac.h"
 307              		.file 35 "../e-puck2_main-processor/ChibiOS//os/hal/ports/STM32/LLD/DACv1/dac_lld.h"
 308              		.file 36 "../e-puck2_main-processor/ChibiOS//os/hal/include/ext.h"
 309              		.file 37 "../e-puck2_main-processor/ChibiOS//os/hal/ports/STM32/LLD/ext_lld.h"
 310              		.file 38 "../e-puck2_main-processor/ChibiOS//os/hal/include/gpt.h"
 311              		.file 39 "../e-puck2_main-processor/ChibiOS//os/hal/ports/STM32/LLD/TIMv1/gpt_lld.h"
 312              		.file 40 "../e-puck2_main-processor/ChibiOS//os/hal/ports/STM32/LLD/TIMv1/stm32_tim.h"
 313              		.file 41 "../e-puck2_main-processor/ChibiOS//os/hal/include/i2c.h"
 314              		.file 42 "../e-puck2_main-processor/ChibiOS//os/hal/ports/STM32/LLD/I2Cv1/i2c_lld.h"
 315              		.file 43 "../e-puck2_main-processor/ChibiOS//os/hal/include/i2s.h"
 316              		.file 44 "../e-puck2_main-processor/ChibiOS//os/hal/ports/STM32/LLD/SPIv1/i2s_lld.h"
 317              		.file 45 "../e-puck2_main-processor/ChibiOS//os/hal/include/pwm.h"
 318              		.file 46 "../e-puck2_main-processor/ChibiOS//os/hal/ports/STM32/LLD/TIMv1/pwm_lld.h"
 319              		.file 47 "../e-puck2_main-processor/ChibiOS//os/hal/include/serial.h"
 320              		.file 48 "../e-puck2_main-processor/ChibiOS//os/hal/ports/STM32/LLD/USARTv1/serial_lld.h"
 321              		.file 49 "../e-puck2_main-processor/ChibiOS//os/hal/include/sdc.h"
 322              		.file 50 "../e-puck2_main-processor/ChibiOS//os/hal/ports/STM32/LLD/sdc_lld.h"
 323              		.file 51 "../e-puck2_main-processor/ChibiOS//os/hal/include/spi.h"
 324              		.file 52 "../e-puck2_main-processor/ChibiOS//os/hal/ports/STM32/LLD/SPIv1/spi_lld.h"
 325              		.file 53 "../e-puck2_main-processor/ChibiOS//os/hal/include/usb.h"
 326              		.file 54 "../e-puck2_main-processor/ChibiOS//os/hal/ports/STM32/LLD/OTGv1/usb_lld.h"
 327              		.file 55 "../e-puck2_main-processor/ChibiOS//os/hal/ports/STM32/LLD/OTGv1/stm32_otg.h"
 328              		.file 56 "../e-puck2_main-processor/ChibiOS//os/hal/include/serial_usb.h"
 329              		.file 57 "../e-puck2_main-processor/src/usbcfg.h"
 330              		.file 58 "../e-puck2_main-processor/ChibiOS_ext/os/hal/include/../ports/STM32/STM32F4xx/dcmi_lld.h
 331              		.file 59 "c:\\users\\megaport\\documents\\eclipse_e-puck2\\eclipse_e-puck2\\tools\\gcc-arm-none-ea
 332              		.file 60 "../e-puck2_main-processor/src/msgbus/messagebus.h"
 333              		.file 61 "../e-puck2_main-processor/src/parameter/parameter.h"
 334              		.file 62 "./main.h"