ARM GAS  C:\Users\Megaport\AppData\Local\Temp\ccHeYW27.s 			page 1


   1              		.cpu cortex-m4
   2              		.eabi_attribute 27, 1
   3              		.eabi_attribute 28, 1
   4              		.eabi_attribute 20, 1
   5              		.eabi_attribute 21, 1
   6              		.eabi_attribute 23, 3
   7              		.eabi_attribute 24, 1
   8              		.eabi_attribute 25, 1
   9              		.eabi_attribute 26, 1
  10              		.eabi_attribute 30, 6
  11              		.eabi_attribute 34, 1
  12              		.eabi_attribute 18, 4
  13              		.file	"process_image.c"
  14              		.text
  15              	.Ltext0:
  16              		.cfi_sections	.debug_frame
  17              		.section	.text.port_lock,"ax",%progbits
  18              		.align	1
  19              		.p2align 4,,15
  20              		.syntax unified
  21              		.thumb
  22              		.thumb_func
  23              		.fpu fpv4-sp-d16
  24              		.type	port_lock, %function
  25              	port_lock:
  26              	.LFB116:
  27              		.file 1 "../e-puck2_main-processor/ChibiOS//os/rt/ports/ARMCMx/chcore_v7m.h"
  28              		.loc 1 444 0
  29              		.cfi_startproc
  30              		@ args = 0, pretend = 0, frame = 8
  31              		@ frame_needed = 0, uses_anonymous_args = 0
  32 0000 00B5     		push	{lr}
  33              		.cfi_def_cfa_offset 4
  34              		.cfi_offset 14, -4
  35 0002 83B0     		sub	sp, sp, #12
  36              		.cfi_def_cfa_offset 16
  37              		.loc 1 444 0
  38 0004 094B     		ldr	r3, .L3
  39 0006 1B68     		ldr	r3, [r3]
  40 0008 0193     		str	r3, [sp, #4]
  41 000a 2023     		movs	r3, #32
  42 000c 0093     		str	r3, [sp]
  43              	.LBB6:
  44              	.LBB7:
  45              		.file 2 "../e-puck2_main-processor/ChibiOS//os/ext/CMSIS/include/core_cmFunc.h"
  46              		.loc 2 546 0
  47 000e 009B     		ldr	r3, [sp]
  48              		.syntax unified
  49              	@ 546 "../e-puck2_main-processor/ChibiOS//os/ext/CMSIS/include/core_cmFunc.h" 1
  50 0010 83F31188 		MSR basepri, r3
  51              	@ 0 "" 2
  52              		.thumb
  53              		.syntax unified
  54              	.LBE7:
  55              	.LBE6:
  56              		.loc 1 451 0
  57 0014 00BF     		nop
ARM GAS  C:\Users\Megaport\AppData\Local\Temp\ccHeYW27.s 			page 2


  58 0016 054B     		ldr	r3, .L3
  59 0018 019A     		ldr	r2, [sp, #4]
  60 001a 1B68     		ldr	r3, [r3]
  61 001c 9A42     		cmp	r2, r3
  62 001e 01D0     		beq	.L2
  63 0020 FFF7FEFF 		bl	__stack_chk_fail
  64              	.L2:
  65 0024 03B0     		add	sp, sp, #12
  66              		.cfi_def_cfa_offset 4
  67              		@ sp needed
  68 0026 5DF804FB 		ldr	pc, [sp], #4
  69              	.L4:
  70 002a 00BF     		.align	2
  71              	.L3:
  72 002c 00000000 		.word	__stack_chk_guard
  73              		.cfi_endproc
  74              	.LFE116:
  75              		.size	port_lock, .-port_lock
  76              		.section	.text.port_unlock,"ax",%progbits
  77              		.align	1
  78              		.p2align 4,,15
  79              		.syntax unified
  80              		.thumb
  81              		.thumb_func
  82              		.fpu fpv4-sp-d16
  83              		.type	port_unlock, %function
  84              	port_unlock:
  85              	.LFB117:
  86              		.loc 1 458 0
  87              		.cfi_startproc
  88              		@ args = 0, pretend = 0, frame = 8
  89              		@ frame_needed = 0, uses_anonymous_args = 0
  90 0000 00B5     		push	{lr}
  91              		.cfi_def_cfa_offset 4
  92              		.cfi_offset 14, -4
  93 0002 83B0     		sub	sp, sp, #12
  94              		.cfi_def_cfa_offset 16
  95              		.loc 1 458 0
  96 0004 094B     		ldr	r3, .L7
  97 0006 1B68     		ldr	r3, [r3]
  98 0008 0193     		str	r3, [sp, #4]
  99 000a 0023     		movs	r3, #0
 100 000c 0093     		str	r3, [sp]
 101              	.LBB8:
 102              	.LBB9:
 103              		.loc 2 546 0
 104 000e 009B     		ldr	r3, [sp]
 105              		.syntax unified
 106              	@ 546 "../e-puck2_main-processor/ChibiOS//os/ext/CMSIS/include/core_cmFunc.h" 1
 107 0010 83F31188 		MSR basepri, r3
 108              	@ 0 "" 2
 109              		.thumb
 110              		.syntax unified
 111              	.LBE9:
 112              	.LBE8:
 113              		.loc 1 465 0
 114 0014 00BF     		nop
ARM GAS  C:\Users\Megaport\AppData\Local\Temp\ccHeYW27.s 			page 3


 115 0016 054B     		ldr	r3, .L7
 116 0018 019A     		ldr	r2, [sp, #4]
 117 001a 1B68     		ldr	r3, [r3]
 118 001c 9A42     		cmp	r2, r3
 119 001e 01D0     		beq	.L6
 120 0020 FFF7FEFF 		bl	__stack_chk_fail
 121              	.L6:
 122 0024 03B0     		add	sp, sp, #12
 123              		.cfi_def_cfa_offset 4
 124              		@ sp needed
 125 0026 5DF804FB 		ldr	pc, [sp], #4
 126              	.L8:
 127 002a 00BF     		.align	2
 128              	.L7:
 129 002c 00000000 		.word	__stack_chk_guard
 130              		.cfi_endproc
 131              	.LFE117:
 132              		.size	port_unlock, .-port_unlock
 133              		.section	.text.chSysLock,"ax",%progbits
 134              		.align	1
 135              		.p2align 4,,15
 136              		.syntax unified
 137              		.thumb
 138              		.thumb_func
 139              		.fpu fpv4-sp-d16
 140              		.type	chSysLock, %function
 141              	chSysLock:
 142              	.LFB145:
 143              		.file 3 "../e-puck2_main-processor/ChibiOS//os/rt/include/chsys.h"
 144              		.loc 3 346 0
 145              		.cfi_startproc
 146              		@ args = 0, pretend = 0, frame = 8
 147              		@ frame_needed = 0, uses_anonymous_args = 0
 148 0000 00B5     		push	{lr}
 149              		.cfi_def_cfa_offset 4
 150              		.cfi_offset 14, -4
 151 0002 83B0     		sub	sp, sp, #12
 152              		.cfi_def_cfa_offset 16
 153              		.loc 3 346 0
 154 0004 094B     		ldr	r3, .L11
 155 0006 1B68     		ldr	r3, [r3]
 156 0008 0193     		str	r3, [sp, #4]
 157              		.loc 3 348 0
 158 000a FFF7FEFF 		bl	port_lock
 159              		.loc 3 349 0
 160 000e FFF7FEFF 		bl	_stats_start_measure_crit_thd
 161              		.loc 3 350 0
 162 0012 FFF7FEFF 		bl	_dbg_check_lock
 163              		.loc 3 351 0
 164 0016 00BF     		nop
 165 0018 044B     		ldr	r3, .L11
 166 001a 019A     		ldr	r2, [sp, #4]
 167 001c 1B68     		ldr	r3, [r3]
 168 001e 9A42     		cmp	r2, r3
 169 0020 01D0     		beq	.L10
 170 0022 FFF7FEFF 		bl	__stack_chk_fail
 171              	.L10:
ARM GAS  C:\Users\Megaport\AppData\Local\Temp\ccHeYW27.s 			page 4


 172 0026 03B0     		add	sp, sp, #12
 173              		.cfi_def_cfa_offset 4
 174              		@ sp needed
 175 0028 5DF804FB 		ldr	pc, [sp], #4
 176              	.L12:
 177              		.align	2
 178              	.L11:
 179 002c 00000000 		.word	__stack_chk_guard
 180              		.cfi_endproc
 181              	.LFE145:
 182              		.size	chSysLock, .-chSysLock
 183              		.section	.text.chSysUnlock,"ax",%progbits
 184              		.align	1
 185              		.p2align 4,,15
 186              		.syntax unified
 187              		.thumb
 188              		.thumb_func
 189              		.fpu fpv4-sp-d16
 190              		.type	chSysUnlock, %function
 191              	chSysUnlock:
 192              	.LFB146:
 193              		.loc 3 358 0
 194              		.cfi_startproc
 195              		@ args = 0, pretend = 0, frame = 8
 196              		@ frame_needed = 0, uses_anonymous_args = 0
 197 0000 00B5     		push	{lr}
 198              		.cfi_def_cfa_offset 4
 199              		.cfi_offset 14, -4
 200 0002 83B0     		sub	sp, sp, #12
 201              		.cfi_def_cfa_offset 16
 202              		.loc 3 358 0
 203 0004 114B     		ldr	r3, .L16
 204 0006 1B68     		ldr	r3, [r3]
 205 0008 0193     		str	r3, [sp, #4]
 206              		.loc 3 360 0
 207 000a FFF7FEFF 		bl	_dbg_check_unlock
 208              		.loc 3 361 0
 209 000e FFF7FEFF 		bl	_stats_stop_measure_crit_thd
 210              		.loc 3 367 0
 211 0012 0F4B     		ldr	r3, .L16+4
 212 0014 1B68     		ldr	r3, [r3]
 213 0016 0E4A     		ldr	r2, .L16+4
 214 0018 9342     		cmp	r3, r2
 215 001a 0AD0     		beq	.L14
 216              		.loc 3 367 0 is_stmt 0 discriminator 2
 217 001c 0C4B     		ldr	r3, .L16+4
 218 001e 9B69     		ldr	r3, [r3, #24]
 219 0020 9A68     		ldr	r2, [r3, #8]
 220 0022 0B4B     		ldr	r3, .L16+4
 221 0024 1B68     		ldr	r3, [r3]
 222 0026 9B68     		ldr	r3, [r3, #8]
 223 0028 9A42     		cmp	r2, r3
 224 002a 02D2     		bcs	.L14
 225              		.loc 3 367 0 discriminator 3
 226 002c 0948     		ldr	r0, .L16+8
 227 002e FFF7FEFF 		bl	chSysHalt
 228              	.L14:
ARM GAS  C:\Users\Megaport\AppData\Local\Temp\ccHeYW27.s 			page 5


 229              		.loc 3 371 0 is_stmt 1
 230 0032 FFF7FEFF 		bl	port_unlock
 231              		.loc 3 372 0
 232 0036 00BF     		nop
 233 0038 044B     		ldr	r3, .L16
 234 003a 019A     		ldr	r2, [sp, #4]
 235 003c 1B68     		ldr	r3, [r3]
 236 003e 9A42     		cmp	r2, r3
 237 0040 01D0     		beq	.L15
 238 0042 FFF7FEFF 		bl	__stack_chk_fail
 239              	.L15:
 240 0046 03B0     		add	sp, sp, #12
 241              		.cfi_def_cfa_offset 4
 242              		@ sp needed
 243 0048 5DF804FB 		ldr	pc, [sp], #4
 244              	.L17:
 245              		.align	2
 246              	.L16:
 247 004c 00000000 		.word	__stack_chk_guard
 248 0050 00000000 		.word	ch
 249 0054 00000000 		.word	__func__.7153
 250              		.cfi_endproc
 251              	.LFE146:
 252              		.size	chSysUnlock, .-chSysUnlock
 253              		.section	.text.chRegSetThreadName,"ax",%progbits
 254              		.align	1
 255              		.p2align 4,,15
 256              		.syntax unified
 257              		.thumb
 258              		.thumb_func
 259              		.fpu fpv4-sp-d16
 260              		.type	chRegSetThreadName, %function
 261              	chRegSetThreadName:
 262              	.LFB176:
 263              		.file 4 "../e-puck2_main-processor/ChibiOS//os/rt/include/chregistry.h"
 264              		.loc 4 132 0
 265              		.cfi_startproc
 266              		@ args = 0, pretend = 0, frame = 16
 267              		@ frame_needed = 0, uses_anonymous_args = 0
 268 0000 00B5     		push	{lr}
 269              		.cfi_def_cfa_offset 4
 270              		.cfi_offset 14, -4
 271 0002 85B0     		sub	sp, sp, #20
 272              		.cfi_def_cfa_offset 24
 273 0004 0190     		str	r0, [sp, #4]
 274              		.loc 4 132 0
 275 0006 094B     		ldr	r3, .L20
 276 0008 1B68     		ldr	r3, [r3]
 277 000a 0393     		str	r3, [sp, #12]
 278              		.loc 4 135 0
 279 000c 084B     		ldr	r3, .L20+4
 280 000e 9B69     		ldr	r3, [r3, #24]
 281 0010 019A     		ldr	r2, [sp, #4]
 282 0012 9A61     		str	r2, [r3, #24]
 283              		.loc 4 139 0
 284 0014 00BF     		nop
 285 0016 054B     		ldr	r3, .L20
ARM GAS  C:\Users\Megaport\AppData\Local\Temp\ccHeYW27.s 			page 6


 286 0018 039A     		ldr	r2, [sp, #12]
 287 001a 1B68     		ldr	r3, [r3]
 288 001c 9A42     		cmp	r2, r3
 289 001e 01D0     		beq	.L19
 290 0020 FFF7FEFF 		bl	__stack_chk_fail
 291              	.L19:
 292 0024 05B0     		add	sp, sp, #20
 293              		.cfi_def_cfa_offset 4
 294              		@ sp needed
 295 0026 5DF804FB 		ldr	pc, [sp], #4
 296              	.L21:
 297 002a 00BF     		.align	2
 298              	.L20:
 299 002c 00000000 		.word	__stack_chk_guard
 300 0030 00000000 		.word	ch
 301              		.cfi_endproc
 302              	.LFE176:
 303              		.size	chRegSetThreadName, .-chRegSetThreadName
 304              		.section	.text.chBSemWait,"ax",%progbits
 305              		.align	1
 306              		.p2align 4,,15
 307              		.syntax unified
 308              		.thumb
 309              		.thumb_func
 310              		.fpu fpv4-sp-d16
 311              		.type	chBSemWait, %function
 312              	chBSemWait:
 313              	.LFB183:
 314              		.file 5 "../e-puck2_main-processor/ChibiOS//os/rt/include/chbsem.h"
 315              		.loc 5 141 0
 316              		.cfi_startproc
 317              		@ args = 0, pretend = 0, frame = 16
 318              		@ frame_needed = 0, uses_anonymous_args = 0
 319 0000 00B5     		push	{lr}
 320              		.cfi_def_cfa_offset 4
 321              		.cfi_offset 14, -4
 322 0002 85B0     		sub	sp, sp, #20
 323              		.cfi_def_cfa_offset 24
 324 0004 0190     		str	r0, [sp, #4]
 325              		.loc 5 141 0
 326 0006 094B     		ldr	r3, .L25
 327 0008 1B68     		ldr	r3, [r3]
 328 000a 0393     		str	r3, [sp, #12]
 329              		.loc 5 143 0
 330 000c 019B     		ldr	r3, [sp, #4]
 331 000e 1846     		mov	r0, r3
 332 0010 FFF7FEFF 		bl	chSemWait
 333 0014 0346     		mov	r3, r0
 334              		.loc 5 144 0
 335 0016 1846     		mov	r0, r3
 336 0018 044B     		ldr	r3, .L25
 337 001a 039A     		ldr	r2, [sp, #12]
 338 001c 1B68     		ldr	r3, [r3]
 339 001e 9A42     		cmp	r2, r3
 340 0020 01D0     		beq	.L24
 341 0022 FFF7FEFF 		bl	__stack_chk_fail
 342              	.L24:
ARM GAS  C:\Users\Megaport\AppData\Local\Temp\ccHeYW27.s 			page 7


 343 0026 05B0     		add	sp, sp, #20
 344              		.cfi_def_cfa_offset 4
 345              		@ sp needed
 346 0028 5DF804FB 		ldr	pc, [sp], #4
 347              	.L26:
 348              		.align	2
 349              	.L25:
 350 002c 00000000 		.word	__stack_chk_guard
 351              		.cfi_endproc
 352              	.LFE183:
 353              		.size	chBSemWait, .-chBSemWait
 354              		.section	.text.chBSemSignalI,"ax",%progbits
 355              		.align	1
 356              		.p2align 4,,15
 357              		.syntax unified
 358              		.thumb
 359              		.thumb_func
 360              		.fpu fpv4-sp-d16
 361              		.type	chBSemSignalI, %function
 362              	chBSemSignalI:
 363              	.LFB189:
 364              		.loc 5 266 0
 365              		.cfi_startproc
 366              		@ args = 0, pretend = 0, frame = 16
 367              		@ frame_needed = 0, uses_anonymous_args = 0
 368 0000 00B5     		push	{lr}
 369              		.cfi_def_cfa_offset 4
 370              		.cfi_offset 14, -4
 371 0002 85B0     		sub	sp, sp, #20
 372              		.cfi_def_cfa_offset 24
 373 0004 0190     		str	r0, [sp, #4]
 374              		.loc 5 266 0
 375 0006 0C4B     		ldr	r3, .L31
 376 0008 1B68     		ldr	r3, [r3]
 377 000a 0393     		str	r3, [sp, #12]
 378              		.loc 5 268 0
 379 000c FFF7FEFF 		bl	chDbgCheckClassI
 380              		.loc 5 270 0
 381 0010 019B     		ldr	r3, [sp, #4]
 382 0012 9B68     		ldr	r3, [r3, #8]
 383 0014 002B     		cmp	r3, #0
 384 0016 03DC     		bgt	.L30
 385              		.loc 5 271 0
 386 0018 019B     		ldr	r3, [sp, #4]
 387 001a 1846     		mov	r0, r3
 388 001c FFF7FEFF 		bl	chSemSignalI
 389              	.L30:
 390              		.loc 5 273 0
 391 0020 00BF     		nop
 392 0022 054B     		ldr	r3, .L31
 393 0024 039A     		ldr	r2, [sp, #12]
 394 0026 1B68     		ldr	r3, [r3]
 395 0028 9A42     		cmp	r2, r3
 396 002a 01D0     		beq	.L29
 397 002c FFF7FEFF 		bl	__stack_chk_fail
 398              	.L29:
 399 0030 05B0     		add	sp, sp, #20
ARM GAS  C:\Users\Megaport\AppData\Local\Temp\ccHeYW27.s 			page 8


 400              		.cfi_def_cfa_offset 4
 401              		@ sp needed
 402 0032 5DF804FB 		ldr	pc, [sp], #4
 403              	.L32:
 404 0036 00BF     		.align	2
 405              	.L31:
 406 0038 00000000 		.word	__stack_chk_guard
 407              		.cfi_endproc
 408              	.LFE189:
 409              		.size	chBSemSignalI, .-chBSemSignalI
 410              		.section	.text.chBSemSignal,"ax",%progbits
 411              		.align	1
 412              		.p2align 4,,15
 413              		.syntax unified
 414              		.thumb
 415              		.thumb_func
 416              		.fpu fpv4-sp-d16
 417              		.type	chBSemSignal, %function
 418              	chBSemSignal:
 419              	.LFB190:
 420              		.loc 5 282 0
 421              		.cfi_startproc
 422              		@ args = 0, pretend = 0, frame = 16
 423              		@ frame_needed = 0, uses_anonymous_args = 0
 424 0000 00B5     		push	{lr}
 425              		.cfi_def_cfa_offset 4
 426              		.cfi_offset 14, -4
 427 0002 85B0     		sub	sp, sp, #20
 428              		.cfi_def_cfa_offset 24
 429 0004 0190     		str	r0, [sp, #4]
 430              		.loc 5 282 0
 431 0006 0B4B     		ldr	r3, .L35
 432 0008 1B68     		ldr	r3, [r3]
 433 000a 0393     		str	r3, [sp, #12]
 434              		.loc 5 284 0
 435 000c FFF7FEFF 		bl	chSysLock
 436              		.loc 5 285 0
 437 0010 0198     		ldr	r0, [sp, #4]
 438 0012 FFF7FEFF 		bl	chBSemSignalI
 439              		.loc 5 286 0
 440 0016 FFF7FEFF 		bl	chSchRescheduleS
 441              		.loc 5 287 0
 442 001a FFF7FEFF 		bl	chSysUnlock
 443              		.loc 5 288 0
 444 001e 00BF     		nop
 445 0020 044B     		ldr	r3, .L35
 446 0022 039A     		ldr	r2, [sp, #12]
 447 0024 1B68     		ldr	r3, [r3]
 448 0026 9A42     		cmp	r2, r3
 449 0028 01D0     		beq	.L34
 450 002a FFF7FEFF 		bl	__stack_chk_fail
 451              	.L34:
 452 002e 05B0     		add	sp, sp, #20
 453              		.cfi_def_cfa_offset 4
 454              		@ sp needed
 455 0030 5DF804FB 		ldr	pc, [sp], #4
 456              	.L36:
ARM GAS  C:\Users\Megaport\AppData\Local\Temp\ccHeYW27.s 			page 9


 457              		.align	2
 458              	.L35:
 459 0034 00000000 		.word	__stack_chk_guard
 460              		.cfi_endproc
 461              	.LFE190:
 462              		.size	chBSemSignal, .-chBSemSignal
 463              		.section	.bss.distance_cm,"aw",%nobits
 464              		.align	2
 465              		.type	distance_cm, %object
 466              		.size	distance_cm, 4
 467              	distance_cm:
 468 0000 00000000 		.space	4
 469              		.section	.data.line_position,"aw",%progbits
 470              		.align	1
 471              		.type	line_position, %object
 472              		.size	line_position, 2
 473              	line_position:
 474 0000 4001     		.short	320
 475              		.section	.data.image_ready_sem,"aw",%progbits
 476              		.align	2
 477              		.type	image_ready_sem, %object
 478              		.size	image_ready_sem, 12
 479              	image_ready_sem:
 480 0000 00000000 		.word	image_ready_sem
 481 0004 00000000 		.word	image_ready_sem
 482 0008 00000000 		.word	0
 483              		.section	.text.extract_line_width,"ax",%progbits
 484              		.align	1
 485              		.p2align 4,,15
 486              		.global	extract_line_width
 487              		.syntax unified
 488              		.thumb
 489              		.thumb_func
 490              		.fpu fpv4-sp-d16
 491              		.type	extract_line_width, %function
 492              	extract_line_width:
 493              	.LFB257:
 494              		.file 6 "process_image.c"
 495              		.loc 6 22 0
 496              		.cfi_startproc
 497              		@ args = 0, pretend = 0, frame = 32
 498              		@ frame_needed = 0, uses_anonymous_args = 0
 499 0000 00B5     		push	{lr}
 500              		.cfi_def_cfa_offset 4
 501              		.cfi_offset 14, -4
 502 0002 89B0     		sub	sp, sp, #36
 503              		.cfi_def_cfa_offset 40
 504 0004 0190     		str	r0, [sp, #4]
 505              		.loc 6 22 0
 506 0006 884B     		ldr	r3, .L63
 507 0008 1B68     		ldr	r3, [r3]
 508 000a 0793     		str	r3, [sp, #28]
 509              		.loc 6 24 0
 510 000c 0023     		movs	r3, #0
 511 000e ADF80E30 		strh	r3, [sp, #14]	@ movhi
 512 0012 0023     		movs	r3, #0
 513 0014 ADF81030 		strh	r3, [sp, #16]	@ movhi
ARM GAS  C:\Users\Megaport\AppData\Local\Temp\ccHeYW27.s 			page 10


 514 0018 0023     		movs	r3, #0
 515 001a ADF81230 		strh	r3, [sp, #18]	@ movhi
 516 001e 0023     		movs	r3, #0
 517 0020 ADF81430 		strh	r3, [sp, #20]	@ movhi
 518              		.loc 6 25 0
 519 0024 0023     		movs	r3, #0
 520 0026 8DF80B30 		strb	r3, [sp, #11]
 521 002a 0023     		movs	r3, #0
 522 002c 8DF80C30 		strb	r3, [sp, #12]
 523 0030 0023     		movs	r3, #0
 524 0032 8DF80D30 		strb	r3, [sp, #13]
 525              		.loc 6 26 0
 526 0036 0023     		movs	r3, #0
 527 0038 0693     		str	r3, [sp, #24]
 528              	.LBB10:
 529              		.loc 6 31 0
 530 003a 0023     		movs	r3, #0
 531 003c ADF81630 		strh	r3, [sp, #22]	@ movhi
 532 0040 0DE0     		b	.L38
 533              	.L39:
 534              		.loc 6 32 0 discriminator 3
 535 0042 BDF81630 		ldrh	r3, [sp, #22]
 536 0046 019A     		ldr	r2, [sp, #4]
 537 0048 1344     		add	r3, r3, r2
 538 004a 1B78     		ldrb	r3, [r3]	@ zero_extendqisi2
 539 004c 1A46     		mov	r2, r3
 540 004e 069B     		ldr	r3, [sp, #24]
 541 0050 1344     		add	r3, r3, r2
 542 0052 0693     		str	r3, [sp, #24]
 543              		.loc 6 31 0 discriminator 3
 544 0054 BDF81630 		ldrh	r3, [sp, #22]
 545 0058 0133     		adds	r3, r3, #1
 546 005a ADF81630 		strh	r3, [sp, #22]	@ movhi
 547              	.L38:
 548              		.loc 6 31 0 is_stmt 0 discriminator 1
 549 005e BDF81630 		ldrh	r3, [sp, #22]
 550 0062 B3F5207F 		cmp	r3, #640
 551 0066 ECD3     		bcc	.L39
 552              	.LBE10:
 553              		.loc 6 34 0 is_stmt 1
 554 0068 069B     		ldr	r3, [sp, #24]
 555 006a 704A     		ldr	r2, .L63+4
 556 006c A2FB0323 		umull	r2, r3, r2, r3
 557 0070 5B0A     		lsrs	r3, r3, #9
 558 0072 0693     		str	r3, [sp, #24]
 559              	.L53:
 560              		.loc 6 37 0
 561 0074 0023     		movs	r3, #0
 562 0076 8DF80C30 		strb	r3, [sp, #12]
 563              		.loc 6 39 0
 564 007a 1EE0     		b	.L40
 565              	.L43:
 566              		.loc 6 43 0
 567 007c BDF80E30 		ldrh	r3, [sp, #14]
 568 0080 019A     		ldr	r2, [sp, #4]
 569 0082 1344     		add	r3, r3, r2
 570 0084 1B78     		ldrb	r3, [r3]	@ zero_extendqisi2
ARM GAS  C:\Users\Megaport\AppData\Local\Temp\ccHeYW27.s 			page 11


 571 0086 1A46     		mov	r2, r3
 572 0088 069B     		ldr	r3, [sp, #24]
 573 008a 9342     		cmp	r3, r2
 574 008c 10D2     		bcs	.L41
 575              		.loc 6 43 0 is_stmt 0 discriminator 1
 576 008e BDF80E30 		ldrh	r3, [sp, #14]
 577 0092 0533     		adds	r3, r3, #5
 578 0094 019A     		ldr	r2, [sp, #4]
 579 0096 1344     		add	r3, r3, r2
 580 0098 1B78     		ldrb	r3, [r3]	@ zero_extendqisi2
 581 009a 1A46     		mov	r2, r3
 582 009c 069B     		ldr	r3, [sp, #24]
 583 009e 9342     		cmp	r3, r2
 584 00a0 06D9     		bls	.L41
 585              		.loc 6 45 0 is_stmt 1
 586 00a2 BDF80E30 		ldrh	r3, [sp, #14]	@ movhi
 587 00a6 ADF81030 		strh	r3, [sp, #16]	@ movhi
 588              		.loc 6 46 0
 589 00aa 0123     		movs	r3, #1
 590 00ac 8DF80B30 		strb	r3, [sp, #11]
 591              	.L41:
 592              		.loc 6 48 0
 593 00b0 BDF80E30 		ldrh	r3, [sp, #14]
 594 00b4 0133     		adds	r3, r3, #1
 595 00b6 ADF80E30 		strh	r3, [sp, #14]	@ movhi
 596              	.L40:
 597              		.loc 6 39 0
 598 00ba 9DF80B30 		ldrb	r3, [sp, #11]	@ zero_extendqisi2
 599 00be 002B     		cmp	r3, #0
 600 00c0 05D1     		bne	.L42
 601              		.loc 6 39 0 is_stmt 0 discriminator 1
 602 00c2 BDF80E30 		ldrh	r3, [sp, #14]
 603 00c6 40F27A22 		movw	r2, #634
 604 00ca 9342     		cmp	r3, r2
 605 00cc D6D9     		bls	.L43
 606              	.L42:
 607              		.loc 6 51 0 is_stmt 1
 608 00ce BDF80E30 		ldrh	r3, [sp, #14]
 609 00d2 40F27A22 		movw	r2, #634
 610 00d6 9342     		cmp	r3, r2
 611 00d8 3CD8     		bhi	.L44
 612              		.loc 6 51 0 is_stmt 0 discriminator 1
 613 00da BDF81030 		ldrh	r3, [sp, #16]
 614 00de 002B     		cmp	r3, #0
 615 00e0 38D0     		beq	.L44
 616              		.loc 6 53 0 is_stmt 1
 617 00e2 0023     		movs	r3, #0
 618 00e4 8DF80B30 		strb	r3, [sp, #11]
 619              		.loc 6 55 0
 620 00e8 1EE0     		b	.L45
 621              	.L48:
 622              		.loc 6 57 0
 623 00ea BDF80E30 		ldrh	r3, [sp, #14]
 624 00ee 019A     		ldr	r2, [sp, #4]
 625 00f0 1344     		add	r3, r3, r2
 626 00f2 1B78     		ldrb	r3, [r3]	@ zero_extendqisi2
 627 00f4 1A46     		mov	r2, r3
ARM GAS  C:\Users\Megaport\AppData\Local\Temp\ccHeYW27.s 			page 12


 628 00f6 069B     		ldr	r3, [sp, #24]
 629 00f8 9342     		cmp	r3, r2
 630 00fa 10D2     		bcs	.L46
 631              		.loc 6 57 0 is_stmt 0 discriminator 1
 632 00fc BDF80E30 		ldrh	r3, [sp, #14]
 633 0100 053B     		subs	r3, r3, #5
 634 0102 019A     		ldr	r2, [sp, #4]
 635 0104 1344     		add	r3, r3, r2
 636 0106 1B78     		ldrb	r3, [r3]	@ zero_extendqisi2
 637 0108 1A46     		mov	r2, r3
 638 010a 069B     		ldr	r3, [sp, #24]
 639 010c 9342     		cmp	r3, r2
 640 010e 06D9     		bls	.L46
 641              		.loc 6 59 0 is_stmt 1
 642 0110 BDF80E30 		ldrh	r3, [sp, #14]	@ movhi
 643 0114 ADF81230 		strh	r3, [sp, #18]	@ movhi
 644              		.loc 6 60 0
 645 0118 0123     		movs	r3, #1
 646 011a 8DF80B30 		strb	r3, [sp, #11]
 647              	.L46:
 648              		.loc 6 62 0
 649 011e BDF80E30 		ldrh	r3, [sp, #14]
 650 0122 0133     		adds	r3, r3, #1
 651 0124 ADF80E30 		strh	r3, [sp, #14]	@ movhi
 652              	.L45:
 653              		.loc 6 55 0
 654 0128 9DF80B30 		ldrb	r3, [sp, #11]	@ zero_extendqisi2
 655 012c 002B     		cmp	r3, #0
 656 012e 04D1     		bne	.L47
 657              		.loc 6 55 0 is_stmt 0 discriminator 1
 658 0130 BDF80E30 		ldrh	r3, [sp, #14]
 659 0134 B3F5207F 		cmp	r3, #640
 660 0138 D7D3     		bcc	.L48
 661              	.L47:
 662              		.loc 6 65 0 is_stmt 1
 663 013a BDF80E30 		ldrh	r3, [sp, #14]
 664 013e B3F5207F 		cmp	r3, #640
 665 0142 03D8     		bhi	.L49
 666              		.loc 6 65 0 is_stmt 0 discriminator 1
 667 0144 BDF81230 		ldrh	r3, [sp, #18]
 668 0148 002B     		cmp	r3, #0
 669 014a 07D1     		bne	.L62
 670              	.L49:
 671              		.loc 6 67 0 is_stmt 1
 672 014c 0123     		movs	r3, #1
 673 014e 8DF80D30 		strb	r3, [sp, #13]
 674              		.loc 6 65 0
 675 0152 03E0     		b	.L62
 676              	.L44:
 677              		.loc 6 72 0
 678 0154 0123     		movs	r3, #1
 679 0156 8DF80D30 		strb	r3, [sp, #13]
 680 015a 00E0     		b	.L51
 681              	.L62:
 682              		.loc 6 65 0
 683 015c 00BF     		nop
 684              	.L51:
ARM GAS  C:\Users\Megaport\AppData\Local\Temp\ccHeYW27.s 			page 13


 685              		.loc 6 76 0
 686 015e 9DF80D30 		ldrb	r3, [sp, #13]	@ zero_extendqisi2
 687 0162 002B     		cmp	r3, #0
 688 0164 16D1     		bne	.L52
 689              		.loc 6 76 0 is_stmt 0 discriminator 1
 690 0166 BDF81220 		ldrh	r2, [sp, #18]
 691 016a BDF81030 		ldrh	r3, [sp, #16]
 692 016e D31A     		subs	r3, r2, r3
 693 0170 272B     		cmp	r3, #39
 694 0172 0FDC     		bgt	.L52
 695              		.loc 6 77 0 is_stmt 1
 696 0174 BDF81230 		ldrh	r3, [sp, #18]	@ movhi
 697 0178 ADF80E30 		strh	r3, [sp, #14]	@ movhi
 698              		.loc 6 78 0
 699 017c 0023     		movs	r3, #0
 700 017e ADF81030 		strh	r3, [sp, #16]	@ movhi
 701              		.loc 6 79 0
 702 0182 0023     		movs	r3, #0
 703 0184 ADF81230 		strh	r3, [sp, #18]	@ movhi
 704              		.loc 6 80 0
 705 0188 0023     		movs	r3, #0
 706 018a 8DF80B30 		strb	r3, [sp, #11]
 707              		.loc 6 81 0
 708 018e 0123     		movs	r3, #1
 709 0190 8DF80C30 		strb	r3, [sp, #12]
 710              	.L52:
 711              		.loc 6 83 0
 712 0194 9DF80C30 		ldrb	r3, [sp, #12]	@ zero_extendqisi2
 713 0198 002B     		cmp	r3, #0
 714 019a 7FF46BAF 		bne	.L53
 715              		.loc 6 85 0
 716 019e 9DF80D30 		ldrb	r3, [sp, #13]	@ zero_extendqisi2
 717 01a2 002B     		cmp	r3, #0
 718 01a4 0AD0     		beq	.L54
 719              		.loc 6 86 0
 720 01a6 0023     		movs	r3, #0
 721 01a8 ADF81030 		strh	r3, [sp, #16]	@ movhi
 722              		.loc 6 87 0
 723 01ac 0023     		movs	r3, #0
 724 01ae ADF81230 		strh	r3, [sp, #18]	@ movhi
 725              		.loc 6 88 0
 726 01b2 1F4B     		ldr	r3, .L63+8
 727 01b4 1B88     		ldrh	r3, [r3]	@ movhi
 728 01b6 ADF81430 		strh	r3, [sp, #20]	@ movhi
 729 01ba 15E0     		b	.L55
 730              	.L54:
 731              		.loc 6 90 0
 732 01bc BDF81220 		ldrh	r2, [sp, #18]	@ movhi
 733 01c0 BDF81030 		ldrh	r3, [sp, #16]	@ movhi
 734 01c4 D31A     		subs	r3, r2, r3
 735 01c6 ADF81430 		strh	r3, [sp, #20]	@ movhi
 736 01ca 194A     		ldr	r2, .L63+8
 737 01cc BDF81430 		ldrh	r3, [sp, #20]	@ movhi
 738 01d0 1380     		strh	r3, [r2]	@ movhi
 739              		.loc 6 91 0
 740 01d2 BDF81020 		ldrh	r2, [sp, #16]
 741 01d6 BDF81230 		ldrh	r3, [sp, #18]
ARM GAS  C:\Users\Megaport\AppData\Local\Temp\ccHeYW27.s 			page 14


 742 01da 1344     		add	r3, r3, r2
 743 01dc DA0F     		lsrs	r2, r3, #31
 744 01de 1344     		add	r3, r3, r2
 745 01e0 5B10     		asrs	r3, r3, #1
 746 01e2 9AB2     		uxth	r2, r3
 747 01e4 134B     		ldr	r3, .L63+12
 748 01e6 1A80     		strh	r2, [r3]	@ movhi
 749              	.L55:
 750              		.loc 6 95 0
 751 01e8 BDF81430 		ldrh	r3, [sp, #20]
 752 01ec 07EE903A 		vmov	s15, r3	@ int
 753 01f0 B8EEE77A 		vcvt.f32.s32	s14, s15
 754 01f4 DFED106A 		vldr.32	s13, .L63+16
 755 01f8 C6EE877A 		vdiv.f32	s15, s13, s14
 756 01fc B3EE097A 		vmov.f32	s14, #2.5e+1
 757 0200 F4EEC77A 		vcmpe.f32	s15, s14
 758 0204 F1EE10FA 		vmrs	APSR_nzcv, FPSCR
 759 0208 01DD     		ble	.L61
 760              		.loc 6 96 0
 761 020a 3E23     		movs	r3, #62
 762 020c 01E0     		b	.L58
 763              	.L61:
 764              		.loc 6 98 0
 765 020e BDF81430 		ldrh	r3, [sp, #20]
 766              	.L58:
 767              		.loc 6 100 0
 768 0212 1846     		mov	r0, r3
 769 0214 044B     		ldr	r3, .L63
 770 0216 079A     		ldr	r2, [sp, #28]
 771 0218 1B68     		ldr	r3, [r3]
 772 021a 9A42     		cmp	r2, r3
 773 021c 01D0     		beq	.L59
 774 021e FFF7FEFF 		bl	__stack_chk_fail
 775              	.L59:
 776 0222 09B0     		add	sp, sp, #36
 777              		.cfi_def_cfa_offset 4
 778              		@ sp needed
 779 0224 5DF804FB 		ldr	pc, [sp], #4
 780              	.L64:
 781              		.align	2
 782              	.L63:
 783 0228 00000000 		.word	__stack_chk_guard
 784 022c CDCCCCCC 		.word	-858993459
 785 0230 00000000 		.word	last_width.11339
 786 0234 00000000 		.word	line_position
 787 0238 0040C444 		.word	1153712128
 788              		.cfi_endproc
 789              	.LFE257:
 790              		.size	extract_line_width, .-extract_line_width
 791              		.section	.bss.waCaptureImage,"aw",%nobits
 792              		.align	3
 793              		.type	waCaptureImage, %object
 794              		.size	waCaptureImage, 632
 795              	waCaptureImage:
 796 0000 00000000 		.space	632
 796      00000000 
 796      00000000 
ARM GAS  C:\Users\Megaport\AppData\Local\Temp\ccHeYW27.s 			page 15


 796      00000000 
 796      00000000 
 797              		.section	.text.CaptureImage,"ax",%progbits
 798              		.align	1
 799              		.p2align 4,,15
 800              		.syntax unified
 801              		.thumb
 802              		.thumb_func
 803              		.fpu fpv4-sp-d16
 804              		.type	CaptureImage, %function
 805              	CaptureImage:
 806              	.LFB258:
 807              		.loc 6 103 0
 808              		.cfi_startproc
 809              		@ args = 0, pretend = 0, frame = 16
 810              		@ frame_needed = 0, uses_anonymous_args = 0
 811 0000 00B5     		push	{lr}
 812              		.cfi_def_cfa_offset 4
 813              		.cfi_offset 14, -4
 814 0002 89B0     		sub	sp, sp, #36
 815              		.cfi_def_cfa_offset 40
 816 0004 0590     		str	r0, [sp, #20]
 817              		.loc 6 103 0
 818 0006 114B     		ldr	r3, .L68
 819 0008 1B68     		ldr	r3, [r3]
 820 000a 0793     		str	r3, [sp, #28]
 821              		.loc 6 105 0
 822 000c 1048     		ldr	r0, .L68+4
 823 000e FFF7FEFF 		bl	chRegSetThreadName
 824              		.loc 6 109 0
 825 0012 2023     		movs	r3, #32
 826 0014 0293     		str	r3, [sp, #8]
 827 0016 2023     		movs	r3, #32
 828 0018 0193     		str	r3, [sp, #4]
 829 001a 0223     		movs	r3, #2
 830 001c 0093     		str	r3, [sp]
 831 001e 4FF42073 		mov	r3, #640
 832 0022 0A22     		movs	r2, #10
 833 0024 0021     		movs	r1, #0
 834 0026 3020     		movs	r0, #48
 835 0028 FFF7FEFF 		bl	po8030_advanced_config
 836              		.loc 6 110 0
 837 002c FFF7FEFF 		bl	dcmi_enable_double_buffering
 838              		.loc 6 111 0
 839 0030 0020     		movs	r0, #0
 840 0032 FFF7FEFF 		bl	dcmi_set_capture_mode
 841              		.loc 6 112 0
 842 0036 FFF7FEFF 		bl	dcmi_prepare
 843              	.L66:
 844              		.loc 6 116 0 discriminator 1
 845 003a FFF7FEFF 		bl	dcmi_capture_start
 846              		.loc 6 118 0 discriminator 1
 847 003e FFF7FEFF 		bl	wait_image_ready
 848              		.loc 6 120 0 discriminator 1
 849 0042 0448     		ldr	r0, .L68+8
 850 0044 FFF7FEFF 		bl	chBSemSignal
 851              		.loc 6 116 0 discriminator 1
ARM GAS  C:\Users\Megaport\AppData\Local\Temp\ccHeYW27.s 			page 16


 852 0048 F7E7     		b	.L66
 853              	.L69:
 854 004a 00BF     		.align	2
 855              	.L68:
 856 004c 00000000 		.word	__stack_chk_guard
 857 0050 00000000 		.word	__FUNCTION__.11356
 858 0054 00000000 		.word	image_ready_sem
 859              		.cfi_endproc
 860              	.LFE258:
 861              		.size	CaptureImage, .-CaptureImage
 862              		.section	.bss.waProcessImage,"aw",%nobits
 863              		.align	3
 864              		.type	waProcessImage, %object
 865              		.size	waProcessImage, 1400
 866              	waProcessImage:
 867 0000 00000000 		.space	1400
 867      00000000 
 867      00000000 
 867      00000000 
 867      00000000 
 868              		.section	.text.ProcessImage,"ax",%progbits
 869              		.align	1
 870              		.p2align 4,,15
 871              		.syntax unified
 872              		.thumb
 873              		.thumb_func
 874              		.fpu fpv4-sp-d16
 875              		.type	ProcessImage, %function
 876              	ProcessImage:
 877              	.LFB259:
 878              		.loc 6 126 0
 879              		.cfi_startproc
 880              		@ args = 0, pretend = 0, frame = 664
 881              		@ frame_needed = 0, uses_anonymous_args = 0
 882 0000 10B5     		push	{r4, lr}
 883              		.cfi_def_cfa_offset 8
 884              		.cfi_offset 4, -8
 885              		.cfi_offset 14, -4
 886 0002 ADF5267D 		sub	sp, sp, #664
 887              		.cfi_def_cfa_offset 672
 888 0006 01AB     		add	r3, sp, #4
 889 0008 1860     		str	r0, [r3]
 890              		.loc 6 126 0
 891 000a 3A4B     		ldr	r3, .L77
 892 000c 1B68     		ldr	r3, [r3]
 893 000e A593     		str	r3, [sp, #660]
 894              		.loc 6 128 0
 895 0010 3948     		ldr	r0, .L77+4
 896 0012 FFF7FEFF 		bl	chRegSetThreadName
 897              		.loc 6 132 0
 898 0016 05AB     		add	r3, sp, #20
 899 0018 1846     		mov	r0, r3
 900 001a 4FF42073 		mov	r3, #640
 901 001e 1A46     		mov	r2, r3
 902 0020 0021     		movs	r1, #0
 903 0022 FFF7FEFF 		bl	memset
 904              		.loc 6 133 0
ARM GAS  C:\Users\Megaport\AppData\Local\Temp\ccHeYW27.s 			page 17


 905 0026 0DF10E03 		add	r3, sp, #14
 906 002a 0022     		movs	r2, #0
 907 002c 1A80     		strh	r2, [r3]	@ movhi
 908              		.loc 6 135 0
 909 002e 0DF10B03 		add	r3, sp, #11
 910 0032 0122     		movs	r2, #1
 911 0034 1A70     		strb	r2, [r3]
 912              	.L75:
 913              		.loc 6 139 0
 914 0036 3148     		ldr	r0, .L77+8
 915 0038 FFF7FEFF 		bl	chBSemWait
 916              		.loc 6 141 0
 917 003c 04AC     		add	r4, sp, #16
 918 003e FFF7FEFF 		bl	dcmi_get_last_image_ptr
 919 0042 2060     		str	r0, [r4]
 920              	.LBB11:
 921              		.loc 6 144 0
 922 0044 03AB     		add	r3, sp, #12
 923 0046 0022     		movs	r2, #0
 924 0048 1A80     		strh	r2, [r3]	@ movhi
 925 004a 13E0     		b	.L71
 926              	.L72:
 927              		.loc 6 147 0 discriminator 3
 928 004c 03AB     		add	r3, sp, #12
 929 004e 1B88     		ldrh	r3, [r3]
 930 0050 04AA     		add	r2, sp, #16
 931 0052 1268     		ldr	r2, [r2]
 932 0054 1344     		add	r3, r3, r2
 933 0056 1B78     		ldrb	r3, [r3]	@ zero_extendqisi2
 934 0058 03AA     		add	r2, sp, #12
 935 005a 1288     		ldrh	r2, [r2]
 936 005c 5208     		lsrs	r2, r2, #1
 937 005e 92B2     		uxth	r2, r2
 938 0060 23F00703 		bic	r3, r3, #7
 939 0064 D9B2     		uxtb	r1, r3
 940 0066 05AB     		add	r3, sp, #20
 941 0068 9954     		strb	r1, [r3, r2]
 942              		.loc 6 144 0 discriminator 3
 943 006a 03AB     		add	r3, sp, #12
 944 006c 03AA     		add	r2, sp, #12
 945 006e 1288     		ldrh	r2, [r2]	@ movhi
 946 0070 0232     		adds	r2, r2, #2
 947 0072 1A80     		strh	r2, [r3]	@ movhi
 948              	.L71:
 949              		.loc 6 144 0 is_stmt 0 discriminator 1
 950 0074 03AB     		add	r3, sp, #12
 951 0076 1B88     		ldrh	r3, [r3]
 952 0078 B3F5A06F 		cmp	r3, #1280
 953 007c E6D3     		bcc	.L72
 954              	.LBE11:
 955              		.loc 6 151 0 is_stmt 1
 956 007e 0DF10E04 		add	r4, sp, #14
 957 0082 05AB     		add	r3, sp, #20
 958 0084 1846     		mov	r0, r3
 959 0086 FFF7FEFF 		bl	extract_line_width
 960 008a 0346     		mov	r3, r0
 961 008c 2380     		strh	r3, [r4]	@ movhi
ARM GAS  C:\Users\Megaport\AppData\Local\Temp\ccHeYW27.s 			page 18


 962              		.loc 6 154 0
 963 008e 0DF10E03 		add	r3, sp, #14
 964 0092 1B88     		ldrh	r3, [r3]
 965 0094 002B     		cmp	r3, #0
 966 0096 0DD0     		beq	.L73
 967              		.loc 6 155 0
 968 0098 0DF10E03 		add	r3, sp, #14
 969 009c 1B88     		ldrh	r3, [r3]
 970 009e 07EE903A 		vmov	s15, r3	@ int
 971 00a2 B8EEE77A 		vcvt.f32.s32	s14, s15
 972 00a6 DFED166A 		vldr.32	s13, .L77+12
 973 00aa C6EE877A 		vdiv.f32	s15, s13, s14
 974 00ae 154B     		ldr	r3, .L77+16
 975 00b0 C3ED007A 		vstr.32	s15, [r3]
 976              	.L73:
 977              		.loc 6 158 0
 978 00b4 0DF10B03 		add	r3, sp, #11
 979 00b8 1B78     		ldrb	r3, [r3]	@ zero_extendqisi2
 980 00ba 002B     		cmp	r3, #0
 981 00bc 05D0     		beq	.L74
 982              		.loc 6 160 0
 983 00be 05AB     		add	r3, sp, #20
 984 00c0 4FF42071 		mov	r1, #640
 985 00c4 1846     		mov	r0, r3
 986 00c6 FFF7FEFF 		bl	SendUint8ToComputer
 987              	.L74:
 988              		.loc 6 163 0
 989 00ca 0DF10B03 		add	r3, sp, #11
 990 00ce 1B78     		ldrb	r3, [r3]	@ zero_extendqisi2
 991 00d0 002B     		cmp	r3, #0
 992 00d2 14BF     		ite	ne
 993 00d4 0123     		movne	r3, #1
 994 00d6 0023     		moveq	r3, #0
 995 00d8 DBB2     		uxtb	r3, r3
 996 00da 83F00103 		eor	r3, r3, #1
 997 00de DBB2     		uxtb	r3, r3
 998 00e0 1A46     		mov	r2, r3
 999 00e2 0DF10B03 		add	r3, sp, #11
 1000 00e6 1A70     		strb	r2, [r3]
 1001 00e8 1A78     		ldrb	r2, [r3]
 1002 00ea 02F00102 		and	r2, r2, #1
 1003 00ee 1A70     		strb	r2, [r3]
 1004              		.loc 6 139 0
 1005 00f0 A1E7     		b	.L75
 1006              	.L78:
 1007 00f2 00BF     		.align	2
 1008              	.L77:
 1009 00f4 00000000 		.word	__stack_chk_guard
 1010 00f8 00000000 		.word	__FUNCTION__.11362
 1011 00fc 00000000 		.word	image_ready_sem
 1012 0100 0040C444 		.word	1153712128
 1013 0104 00000000 		.word	distance_cm
 1014              		.cfi_endproc
 1015              	.LFE259:
 1016              		.size	ProcessImage, .-ProcessImage
 1017              		.section	.text.get_distance_cm,"ax",%progbits
 1018              		.align	1
ARM GAS  C:\Users\Megaport\AppData\Local\Temp\ccHeYW27.s 			page 19


 1019              		.p2align 4,,15
 1020              		.global	get_distance_cm
 1021              		.syntax unified
 1022              		.thumb
 1023              		.thumb_func
 1024              		.fpu fpv4-sp-d16
 1025              		.type	get_distance_cm, %function
 1026              	get_distance_cm:
 1027              	.LFB260:
 1028              		.loc 6 167 0
 1029              		.cfi_startproc
 1030              		@ args = 0, pretend = 0, frame = 8
 1031              		@ frame_needed = 0, uses_anonymous_args = 0
 1032 0000 00B5     		push	{lr}
 1033              		.cfi_def_cfa_offset 4
 1034              		.cfi_offset 14, -4
 1035 0002 83B0     		sub	sp, sp, #12
 1036              		.cfi_def_cfa_offset 16
 1037              		.loc 6 167 0
 1038 0004 094B     		ldr	r3, .L82
 1039 0006 1B68     		ldr	r3, [r3]
 1040 0008 0193     		str	r3, [sp, #4]
 1041              		.loc 6 168 0
 1042 000a 094B     		ldr	r3, .L82+4
 1043 000c 1B68     		ldr	r3, [r3]	@ float
 1044 000e 07EE903A 		vmov	s15, r3
 1045              		.loc 6 169 0
 1046 0012 B0EE670A 		vmov.f32	s0, s15
 1047 0016 054B     		ldr	r3, .L82
 1048 0018 019A     		ldr	r2, [sp, #4]
 1049 001a 1B68     		ldr	r3, [r3]
 1050 001c 9A42     		cmp	r2, r3
 1051 001e 01D0     		beq	.L81
 1052 0020 FFF7FEFF 		bl	__stack_chk_fail
 1053              	.L81:
 1054 0024 03B0     		add	sp, sp, #12
 1055              		.cfi_def_cfa_offset 4
 1056              		@ sp needed
 1057 0026 5DF804FB 		ldr	pc, [sp], #4
 1058              	.L83:
 1059 002a 00BF     		.align	2
 1060              	.L82:
 1061 002c 00000000 		.word	__stack_chk_guard
 1062 0030 00000000 		.word	distance_cm
 1063              		.cfi_endproc
 1064              	.LFE260:
 1065              		.size	get_distance_cm, .-get_distance_cm
 1066              		.section	.text.get_line_position,"ax",%progbits
 1067              		.align	1
 1068              		.p2align 4,,15
 1069              		.global	get_line_position
 1070              		.syntax unified
 1071              		.thumb
 1072              		.thumb_func
 1073              		.fpu fpv4-sp-d16
 1074              		.type	get_line_position, %function
 1075              	get_line_position:
ARM GAS  C:\Users\Megaport\AppData\Local\Temp\ccHeYW27.s 			page 20


 1076              	.LFB261:
 1077              		.loc 6 171 0
 1078              		.cfi_startproc
 1079              		@ args = 0, pretend = 0, frame = 8
 1080              		@ frame_needed = 0, uses_anonymous_args = 0
 1081 0000 00B5     		push	{lr}
 1082              		.cfi_def_cfa_offset 4
 1083              		.cfi_offset 14, -4
 1084 0002 83B0     		sub	sp, sp, #12
 1085              		.cfi_def_cfa_offset 16
 1086              		.loc 6 171 0
 1087 0004 074B     		ldr	r3, .L87
 1088 0006 1B68     		ldr	r3, [r3]
 1089 0008 0193     		str	r3, [sp, #4]
 1090              		.loc 6 172 0
 1091 000a 074B     		ldr	r3, .L87+4
 1092 000c 1B88     		ldrh	r3, [r3]
 1093              		.loc 6 173 0
 1094 000e 1846     		mov	r0, r3
 1095 0010 044B     		ldr	r3, .L87
 1096 0012 019A     		ldr	r2, [sp, #4]
 1097 0014 1B68     		ldr	r3, [r3]
 1098 0016 9A42     		cmp	r2, r3
 1099 0018 01D0     		beq	.L86
 1100 001a FFF7FEFF 		bl	__stack_chk_fail
 1101              	.L86:
 1102 001e 03B0     		add	sp, sp, #12
 1103              		.cfi_def_cfa_offset 4
 1104              		@ sp needed
 1105 0020 5DF804FB 		ldr	pc, [sp], #4
 1106              	.L88:
 1107              		.align	2
 1108              	.L87:
 1109 0024 00000000 		.word	__stack_chk_guard
 1110 0028 00000000 		.word	line_position
 1111              		.cfi_endproc
 1112              	.LFE261:
 1113              		.size	get_line_position, .-get_line_position
 1114              		.section	.text.process_image_start,"ax",%progbits
 1115              		.align	1
 1116              		.p2align 4,,15
 1117              		.global	process_image_start
 1118              		.syntax unified
 1119              		.thumb
 1120              		.thumb_func
 1121              		.fpu fpv4-sp-d16
 1122              		.type	process_image_start, %function
 1123              	process_image_start:
 1124              	.LFB262:
 1125              		.loc 6 175 0
 1126              		.cfi_startproc
 1127              		@ args = 0, pretend = 0, frame = 8
 1128              		@ frame_needed = 0, uses_anonymous_args = 0
 1129 0000 00B5     		push	{lr}
 1130              		.cfi_def_cfa_offset 4
 1131              		.cfi_offset 14, -4
 1132 0002 85B0     		sub	sp, sp, #20
ARM GAS  C:\Users\Megaport\AppData\Local\Temp\ccHeYW27.s 			page 21


 1133              		.cfi_def_cfa_offset 24
 1134              		.loc 6 175 0
 1135 0004 0F4B     		ldr	r3, .L91
 1136 0006 1B68     		ldr	r3, [r3]
 1137 0008 0393     		str	r3, [sp, #12]
 1138              		.loc 6 176 0
 1139 000a 0023     		movs	r3, #0
 1140 000c 0093     		str	r3, [sp]
 1141 000e 0E4B     		ldr	r3, .L91+4
 1142 0010 4022     		movs	r2, #64
 1143 0012 4FF4AF61 		mov	r1, #1400
 1144 0016 0D48     		ldr	r0, .L91+8
 1145 0018 FFF7FEFF 		bl	chThdCreateStatic
 1146              		.loc 6 177 0
 1147 001c 0023     		movs	r3, #0
 1148 001e 0093     		str	r3, [sp]
 1149 0020 0B4B     		ldr	r3, .L91+12
 1150 0022 4022     		movs	r2, #64
 1151 0024 4FF41E71 		mov	r1, #632
 1152 0028 0A48     		ldr	r0, .L91+16
 1153 002a FFF7FEFF 		bl	chThdCreateStatic
 1154              		.loc 6 178 0
 1155 002e 00BF     		nop
 1156 0030 044B     		ldr	r3, .L91
 1157 0032 039A     		ldr	r2, [sp, #12]
 1158 0034 1B68     		ldr	r3, [r3]
 1159 0036 9A42     		cmp	r2, r3
 1160 0038 01D0     		beq	.L90
 1161 003a FFF7FEFF 		bl	__stack_chk_fail
 1162              	.L90:
 1163 003e 05B0     		add	sp, sp, #20
 1164              		.cfi_def_cfa_offset 4
 1165              		@ sp needed
 1166 0040 5DF804FB 		ldr	pc, [sp], #4
 1167              	.L92:
 1168              		.align	2
 1169              	.L91:
 1170 0044 00000000 		.word	__stack_chk_guard
 1171 0048 00000000 		.word	ProcessImage
 1172 004c 00000000 		.word	waProcessImage
 1173 0050 00000000 		.word	CaptureImage
 1174 0054 00000000 		.word	waCaptureImage
 1175              		.cfi_endproc
 1176              	.LFE262:
 1177              		.size	process_image_start, .-process_image_start
 1178              		.section	.data.last_width.11339,"aw",%progbits
 1179              		.align	1
 1180              		.type	last_width.11339, %object
 1181              		.size	last_width.11339, 2
 1182              	last_width.11339:
 1183 0000 9D00     		.short	157
 1184              		.section	.rodata.__FUNCTION__.11356,"a",%progbits
 1185              		.align	2
 1186              		.type	__FUNCTION__.11356, %object
 1187              		.size	__FUNCTION__.11356, 13
 1188              	__FUNCTION__.11356:
 1189 0000 43617074 		.ascii	"CaptureImage\000"
ARM GAS  C:\Users\Megaport\AppData\Local\Temp\ccHeYW27.s 			page 22


 1189      75726549 
 1189      6D616765 
 1189      00
 1190              		.section	.rodata.__func__.7153,"a",%progbits
 1191              		.align	2
 1192              		.type	__func__.7153, %object
 1193              		.size	__func__.7153, 12
 1194              	__func__.7153:
 1195 0000 63685379 		.ascii	"chSysUnlock\000"
 1195      73556E6C 
 1195      6F636B00 
 1196              		.section	.rodata.__FUNCTION__.11362,"a",%progbits
 1197              		.align	2
 1198              		.type	__FUNCTION__.11362, %object
 1199              		.size	__FUNCTION__.11362, 13
 1200              	__FUNCTION__.11362:
 1201 0000 50726F63 		.ascii	"ProcessImage\000"
 1201      65737349 
 1201      6D616765 
 1201      00
 1202              		.text
 1203              	.Letext0:
 1204              		.file 7 "c:\\users\\megaport\\documents\\eclipse_e-puck2\\eclipse_e-puck2\\tools\\gcc-arm-none-eab
 1205              		.file 8 "c:\\users\\megaport\\documents\\eclipse_e-puck2\\eclipse_e-puck2\\tools\\gcc-arm-none-eab
 1206              		.file 9 "c:\\users\\megaport\\documents\\eclipse_e-puck2\\eclipse_e-puck2\\tools\\gcc-arm-none-eab
 1207              		.file 10 "../e-puck2_main-processor/ChibiOS//os/rt/ports/ARMCMx/compilers/GCC/chtypes.h"
 1208              		.file 11 "../e-puck2_main-processor/ChibiOS//os/rt/include/chsystypes.h"
 1209              		.file 12 "../e-puck2_main-processor/ChibiOS//os/rt/include/chschd.h"
 1210              		.file 13 "../e-puck2_main-processor/ChibiOS//os/ext/CMSIS/include/core_cm4.h"
 1211              		.file 14 "../e-puck2_main-processor/ChibiOS//os/ext/CMSIS/ST/system_stm32f4xx.h"
 1212              		.file 15 "../e-puck2_main-processor/ChibiOS//os/ext/CMSIS/ST/stm32f407xx.h"
 1213              		.file 16 "../e-puck2_main-processor/ChibiOS//os/rt/ports/ARMCMx/chcore.h"
 1214              		.file 17 "../e-puck2_main-processor/ChibiOS//os/rt/include/chdebug.h"
 1215              		.file 18 "../e-puck2_main-processor/ChibiOS//os/rt/include/chtm.h"
 1216              		.file 19 "../e-puck2_main-processor/ChibiOS//os/rt/include/chstats.h"
 1217              		.file 20 "../e-puck2_main-processor/ChibiOS//os/rt/include/chsem.h"
 1218              		.file 21 "../e-puck2_main-processor/ChibiOS//os/rt/include/chmtx.h"
 1219              		.file 22 "../e-puck2_main-processor/ChibiOS//os/rt/include/chevents.h"
 1220              		.file 23 "../e-puck2_main-processor/ChibiOS//os/rt/include/chqueues.h"
 1221              		.file 24 "../e-puck2_main-processor/ChibiOS//os/hal/ports/STM32/STM32F4xx/stm32_dma.h"
 1222              		.file 25 "../e-puck2_main-processor/ChibiOS//os/hal/include/hal_ioblock.h"
 1223              		.file 26 "../e-puck2_main-processor/ChibiOS//os/hal/ports/STM32/LLD/GPIOv2/pal_lld.h"
 1224              		.file 27 "../e-puck2_main-processor/ChibiOS//os/hal/include/adc.h"
 1225              		.file 28 "../e-puck2_main-processor/ChibiOS//os/hal/ports/STM32/STM32F4xx/adc_lld.h"
 1226              		.file 29 "../e-puck2_main-processor/ChibiOS//os/hal/include/can.h"
 1227              		.file 30 "../e-puck2_main-processor/ChibiOS//os/hal/ports/STM32/LLD/can_lld.h"
 1228              		.file 31 "../e-puck2_main-processor/ChibiOS//os/hal/include/dac.h"
 1229              		.file 32 "../e-puck2_main-processor/ChibiOS//os/hal/ports/STM32/LLD/DACv1/dac_lld.h"
 1230              		.file 33 "../e-puck2_main-processor/ChibiOS//os/hal/include/ext.h"
 1231              		.file 34 "../e-puck2_main-processor/ChibiOS//os/hal/ports/STM32/LLD/ext_lld.h"
 1232              		.file 35 "../e-puck2_main-processor/ChibiOS//os/hal/include/gpt.h"
 1233              		.file 36 "../e-puck2_main-processor/ChibiOS//os/hal/ports/STM32/LLD/TIMv1/gpt_lld.h"
 1234              		.file 37 "../e-puck2_main-processor/ChibiOS//os/hal/ports/STM32/LLD/TIMv1/stm32_tim.h"
 1235              		.file 38 "../e-puck2_main-processor/ChibiOS//os/hal/include/i2c.h"
 1236              		.file 39 "../e-puck2_main-processor/ChibiOS//os/hal/ports/STM32/LLD/I2Cv1/i2c_lld.h"
 1237              		.file 40 "../e-puck2_main-processor/ChibiOS//os/hal/include/i2s.h"
 1238              		.file 41 "../e-puck2_main-processor/ChibiOS//os/hal/ports/STM32/LLD/SPIv1/i2s_lld.h"
ARM GAS  C:\Users\Megaport\AppData\Local\Temp\ccHeYW27.s 			page 23


 1239              		.file 42 "../e-puck2_main-processor/ChibiOS//os/hal/include/pwm.h"
 1240              		.file 43 "../e-puck2_main-processor/ChibiOS//os/hal/ports/STM32/LLD/TIMv1/pwm_lld.h"
 1241              		.file 44 "../e-puck2_main-processor/ChibiOS//os/hal/include/serial.h"
 1242              		.file 45 "../e-puck2_main-processor/ChibiOS//os/hal/ports/STM32/LLD/USARTv1/serial_lld.h"
 1243              		.file 46 "../e-puck2_main-processor/ChibiOS//os/hal/include/sdc.h"
 1244              		.file 47 "../e-puck2_main-processor/ChibiOS//os/hal/ports/STM32/LLD/sdc_lld.h"
 1245              		.file 48 "../e-puck2_main-processor/ChibiOS//os/hal/include/spi.h"
 1246              		.file 49 "../e-puck2_main-processor/ChibiOS//os/hal/ports/STM32/LLD/SPIv1/spi_lld.h"
 1247              		.file 50 "../e-puck2_main-processor/ChibiOS//os/hal/include/usb.h"
 1248              		.file 51 "../e-puck2_main-processor/ChibiOS//os/hal/ports/STM32/LLD/OTGv1/usb_lld.h"
 1249              		.file 52 "../e-puck2_main-processor/ChibiOS//os/hal/ports/STM32/LLD/OTGv1/stm32_otg.h"
 1250              		.file 53 "../e-puck2_main-processor/ChibiOS//os/hal/include/serial_usb.h"
 1251              		.file 54 "../e-puck2_main-processor/src/usbcfg.h"
 1252              		.file 55 "../e-puck2_main-processor/ChibiOS_ext/os/hal/include/../ports/STM32/STM32F4xx/dcmi_lld.h
 1253              		.file 56 "../e-puck2_main-processor/src/camera/po8030.h"
 1254              		.file 57 "../e-puck2_main-processor/src/camera/dcmi_camera.h"
 1255              		.file 58 "c:\\users\\megaport\\documents\\eclipse_e-puck2\\eclipse_e-puck2\\tools\\gcc-arm-none-ea
 1256              		.file 59 "c:\\users\\megaport\\documents\\eclipse_e-puck2\\eclipse_e-puck2\\tools\\gcc-arm-none-ea
 1257              		.file 60 "c:\\users\\megaport\\documents\\eclipse_e-puck2\\eclipse_e-puck2\\tools\\gcc-arm-none-ea
 1258              		.file 61 "../e-puck2_main-processor/src/msgbus/messagebus.h"
 1259              		.file 62 "c:\\users\\megaport\\documents\\eclipse_e-puck2\\eclipse_e-puck2\\tools\\gcc-arm-none-ea
 1260              		.file 63 "c:\\users\\megaport\\documents\\eclipse_e-puck2\\eclipse_e-puck2\\tools\\gcc-arm-none-ea
 1261              		.file 64 "../e-puck2_main-processor/src/parameter/parameter.h"
 1262              		.file 65 "./main.h"