ARM GAS  C:\Users\Megaport\AppData\Local\Temp\ccttL01Q.s 			page 1


   1              		.cpu cortex-m4
   2              		.eabi_attribute 27, 1
   3              		.eabi_attribute 28, 1
   4              		.eabi_attribute 20, 1
   5              		.eabi_attribute 21, 1
   6              		.eabi_attribute 23, 3
   7              		.eabi_attribute 24, 1
   8              		.eabi_attribute 25, 1
   9              		.eabi_attribute 26, 1
  10              		.eabi_attribute 30, 6
  11              		.eabi_attribute 34, 1
  12              		.eabi_attribute 18, 4
  13              		.file	"stm32_dma.c"
  14              		.text
  15              	.Ltext0:
  16              		.cfi_sections	.debug_frame
  17              		.global	_stm32_dma_streams
  18              		.section	.rodata._stm32_dma_streams,"a",%progbits
  19              		.align	2
  20              		.type	_stm32_dma_streams, %object
  21              		.size	_stm32_dma_streams, 192
  22              	_stm32_dma_streams:
  23 0000 10600240 		.word	1073897488
  24 0004 08600240 		.word	1073897480
  25 0008 00       		.byte	0
  26 0009 00       		.byte	0
  27 000a 0B       		.byte	11
  28 000b 00       		.space	1
  29 000c 28600240 		.word	1073897512
  30 0010 08600240 		.word	1073897480
  31 0014 06       		.byte	6
  32 0015 01       		.byte	1
  33 0016 0C       		.byte	12
  34 0017 00       		.space	1
  35 0018 40600240 		.word	1073897536
  36 001c 08600240 		.word	1073897480
  37 0020 10       		.byte	16
  38 0021 02       		.byte	2
  39 0022 0D       		.byte	13
  40 0023 00       		.space	1
  41 0024 58600240 		.word	1073897560
  42 0028 08600240 		.word	1073897480
  43 002c 16       		.byte	22
  44 002d 03       		.byte	3
  45 002e 0E       		.byte	14
  46 002f 00       		.space	1
  47 0030 70600240 		.word	1073897584
  48 0034 0C600240 		.word	1073897484
  49 0038 00       		.byte	0
  50 0039 04       		.byte	4
  51 003a 0F       		.byte	15
  52 003b 00       		.space	1
  53 003c 88600240 		.word	1073897608
  54 0040 0C600240 		.word	1073897484
  55 0044 06       		.byte	6
  56 0045 05       		.byte	5
  57 0046 10       		.byte	16
ARM GAS  C:\Users\Megaport\AppData\Local\Temp\ccttL01Q.s 			page 2


  58 0047 00       		.space	1
  59 0048 A0600240 		.word	1073897632
  60 004c 0C600240 		.word	1073897484
  61 0050 10       		.byte	16
  62 0051 06       		.byte	6
  63 0052 11       		.byte	17
  64 0053 00       		.space	1
  65 0054 B8600240 		.word	1073897656
  66 0058 0C600240 		.word	1073897484
  67 005c 16       		.byte	22
  68 005d 07       		.byte	7
  69 005e 2F       		.byte	47
  70 005f 00       		.space	1
  71 0060 10640240 		.word	1073898512
  72 0064 08640240 		.word	1073898504
  73 0068 00       		.byte	0
  74 0069 08       		.byte	8
  75 006a 38       		.byte	56
  76 006b 00       		.space	1
  77 006c 28640240 		.word	1073898536
  78 0070 08640240 		.word	1073898504
  79 0074 06       		.byte	6
  80 0075 09       		.byte	9
  81 0076 39       		.byte	57
  82 0077 00       		.space	1
  83 0078 40640240 		.word	1073898560
  84 007c 08640240 		.word	1073898504
  85 0080 10       		.byte	16
  86 0081 0A       		.byte	10
  87 0082 3A       		.byte	58
  88 0083 00       		.space	1
  89 0084 58640240 		.word	1073898584
  90 0088 08640240 		.word	1073898504
  91 008c 16       		.byte	22
  92 008d 0B       		.byte	11
  93 008e 3B       		.byte	59
  94 008f 00       		.space	1
  95 0090 70640240 		.word	1073898608
  96 0094 0C640240 		.word	1073898508
  97 0098 00       		.byte	0
  98 0099 0C       		.byte	12
  99 009a 3C       		.byte	60
 100 009b 00       		.space	1
 101 009c 88640240 		.word	1073898632
 102 00a0 0C640240 		.word	1073898508
 103 00a4 06       		.byte	6
 104 00a5 0D       		.byte	13
 105 00a6 44       		.byte	68
 106 00a7 00       		.space	1
 107 00a8 A0640240 		.word	1073898656
 108 00ac 0C640240 		.word	1073898508
 109 00b0 10       		.byte	16
 110 00b1 0E       		.byte	14
 111 00b2 45       		.byte	69
 112 00b3 00       		.space	1
 113 00b4 B8640240 		.word	1073898680
 114 00b8 0C640240 		.word	1073898508
ARM GAS  C:\Users\Megaport\AppData\Local\Temp\ccttL01Q.s 			page 3


 115 00bc 16       		.byte	22
 116 00bd 0F       		.byte	15
 117 00be 46       		.byte	70
 118 00bf 00       		.space	1
 119              		.section	.bss.dma_streams_mask,"aw",%nobits
 120              		.align	2
 121              		.type	dma_streams_mask, %object
 122              		.size	dma_streams_mask, 4
 123              	dma_streams_mask:
 124 0000 00000000 		.space	4
 125              		.section	.bss.dma_isr_redir,"aw",%nobits
 126              		.align	2
 127              		.type	dma_isr_redir, %object
 128              		.size	dma_isr_redir, 128
 129              	dma_isr_redir:
 130 0000 00000000 		.space	128
 130      00000000 
 130      00000000 
 130      00000000 
 130      00000000 
 131              		.section	.text.Vector6C,"ax",%progbits
 132              		.align	1
 133              		.p2align 4,,15
 134              		.global	Vector6C
 135              		.syntax unified
 136              		.thumb
 137              		.thumb_func
 138              		.fpu fpv4-sp-d16
 139              		.type	Vector6C, %function
 140              	Vector6C:
 141              	.LFB256:
 142              		.file 1 "../e-puck2_main-processor/ChibiOS//os/hal/ports/STM32/STM32F4xx/stm32_dma.c"
 143              		.loc 1 127 0
 144              		.cfi_startproc
 145              		@ args = 0, pretend = 0, frame = 8
 146              		@ frame_needed = 0, uses_anonymous_args = 0
 147 0000 00B5     		push	{lr}
 148              		.cfi_def_cfa_offset 4
 149              		.cfi_offset 14, -4
 150 0002 83B0     		sub	sp, sp, #12
 151              		.cfi_def_cfa_offset 16
 152              		.loc 1 127 0
 153 0004 144B     		ldr	r3, .L4
 154 0006 1B68     		ldr	r3, [r3]
 155 0008 0193     		str	r3, [sp, #4]
 156              		.loc 1 130 0
 157 000a FFF7FEFF 		bl	_stats_increase_irq
 158 000e FFF7FEFF 		bl	_dbg_check_enter_isr
 159              		.loc 1 132 0
 160 0012 124B     		ldr	r3, .L4+4
 161 0014 1B68     		ldr	r3, [r3]
 162 0016 03F03D03 		and	r3, r3, #61
 163 001a 0093     		str	r3, [sp]
 164              		.loc 1 133 0
 165 001c 0F4A     		ldr	r2, .L4+4
 166 001e 009B     		ldr	r3, [sp]
 167 0020 9360     		str	r3, [r2, #8]
ARM GAS  C:\Users\Megaport\AppData\Local\Temp\ccttL01Q.s 			page 4


 168              		.loc 1 134 0
 169 0022 0F4B     		ldr	r3, .L4+8
 170 0024 1B68     		ldr	r3, [r3]
 171 0026 002B     		cmp	r3, #0
 172 0028 06D0     		beq	.L2
 173              		.loc 1 135 0
 174 002a 0D4B     		ldr	r3, .L4+8
 175 002c 1B68     		ldr	r3, [r3]
 176 002e 0C4A     		ldr	r2, .L4+8
 177 0030 5268     		ldr	r2, [r2, #4]
 178 0032 0099     		ldr	r1, [sp]
 179 0034 1046     		mov	r0, r2
 180 0036 9847     		blx	r3
 181              	.LVL0:
 182              	.L2:
 183              		.loc 1 137 0
 184 0038 FFF7FEFF 		bl	_dbg_check_leave_isr
 185 003c FFF7FEFF 		bl	_port_irq_epilogue
 186              		.loc 1 138 0
 187 0040 00BF     		nop
 188 0042 054B     		ldr	r3, .L4
 189 0044 019A     		ldr	r2, [sp, #4]
 190 0046 1B68     		ldr	r3, [r3]
 191 0048 9A42     		cmp	r2, r3
 192 004a 01D0     		beq	.L3
 193 004c FFF7FEFF 		bl	__stack_chk_fail
 194              	.L3:
 195 0050 03B0     		add	sp, sp, #12
 196              		.cfi_def_cfa_offset 4
 197              		@ sp needed
 198 0052 5DF804FB 		ldr	pc, [sp], #4
 199              	.L5:
 200 0056 00BF     		.align	2
 201              	.L4:
 202 0058 00000000 		.word	__stack_chk_guard
 203 005c 00600240 		.word	1073897472
 204 0060 00000000 		.word	dma_isr_redir
 205              		.cfi_endproc
 206              	.LFE256:
 207              		.size	Vector6C, .-Vector6C
 208              		.section	.text.Vector70,"ax",%progbits
 209              		.align	1
 210              		.p2align 4,,15
 211              		.global	Vector70
 212              		.syntax unified
 213              		.thumb
 214              		.thumb_func
 215              		.fpu fpv4-sp-d16
 216              		.type	Vector70, %function
 217              	Vector70:
 218              	.LFB257:
 219              		.loc 1 145 0
 220              		.cfi_startproc
 221              		@ args = 0, pretend = 0, frame = 8
 222              		@ frame_needed = 0, uses_anonymous_args = 0
 223 0000 00B5     		push	{lr}
 224              		.cfi_def_cfa_offset 4
ARM GAS  C:\Users\Megaport\AppData\Local\Temp\ccttL01Q.s 			page 5


 225              		.cfi_offset 14, -4
 226 0002 83B0     		sub	sp, sp, #12
 227              		.cfi_def_cfa_offset 16
 228              		.loc 1 145 0
 229 0004 154B     		ldr	r3, .L9
 230 0006 1B68     		ldr	r3, [r3]
 231 0008 0193     		str	r3, [sp, #4]
 232              		.loc 1 148 0
 233 000a FFF7FEFF 		bl	_stats_increase_irq
 234 000e FFF7FEFF 		bl	_dbg_check_enter_isr
 235              		.loc 1 150 0
 236 0012 134B     		ldr	r3, .L9+4
 237 0014 1B68     		ldr	r3, [r3]
 238 0016 9B09     		lsrs	r3, r3, #6
 239 0018 03F03D03 		and	r3, r3, #61
 240 001c 0093     		str	r3, [sp]
 241              		.loc 1 151 0
 242 001e 104A     		ldr	r2, .L9+4
 243 0020 009B     		ldr	r3, [sp]
 244 0022 9B01     		lsls	r3, r3, #6
 245 0024 9360     		str	r3, [r2, #8]
 246              		.loc 1 152 0
 247 0026 0F4B     		ldr	r3, .L9+8
 248 0028 9B68     		ldr	r3, [r3, #8]
 249 002a 002B     		cmp	r3, #0
 250 002c 06D0     		beq	.L7
 251              		.loc 1 153 0
 252 002e 0D4B     		ldr	r3, .L9+8
 253 0030 9B68     		ldr	r3, [r3, #8]
 254 0032 0C4A     		ldr	r2, .L9+8
 255 0034 D268     		ldr	r2, [r2, #12]
 256 0036 0099     		ldr	r1, [sp]
 257 0038 1046     		mov	r0, r2
 258 003a 9847     		blx	r3
 259              	.LVL1:
 260              	.L7:
 261              		.loc 1 155 0
 262 003c FFF7FEFF 		bl	_dbg_check_leave_isr
 263 0040 FFF7FEFF 		bl	_port_irq_epilogue
 264              		.loc 1 156 0
 265 0044 00BF     		nop
 266 0046 054B     		ldr	r3, .L9
 267 0048 019A     		ldr	r2, [sp, #4]
 268 004a 1B68     		ldr	r3, [r3]
 269 004c 9A42     		cmp	r2, r3
 270 004e 01D0     		beq	.L8
 271 0050 FFF7FEFF 		bl	__stack_chk_fail
 272              	.L8:
 273 0054 03B0     		add	sp, sp, #12
 274              		.cfi_def_cfa_offset 4
 275              		@ sp needed
 276 0056 5DF804FB 		ldr	pc, [sp], #4
 277              	.L10:
 278 005a 00BF     		.align	2
 279              	.L9:
 280 005c 00000000 		.word	__stack_chk_guard
 281 0060 00600240 		.word	1073897472
ARM GAS  C:\Users\Megaport\AppData\Local\Temp\ccttL01Q.s 			page 6


 282 0064 00000000 		.word	dma_isr_redir
 283              		.cfi_endproc
 284              	.LFE257:
 285              		.size	Vector70, .-Vector70
 286              		.section	.text.Vector74,"ax",%progbits
 287              		.align	1
 288              		.p2align 4,,15
 289              		.global	Vector74
 290              		.syntax unified
 291              		.thumb
 292              		.thumb_func
 293              		.fpu fpv4-sp-d16
 294              		.type	Vector74, %function
 295              	Vector74:
 296              	.LFB258:
 297              		.loc 1 163 0
 298              		.cfi_startproc
 299              		@ args = 0, pretend = 0, frame = 8
 300              		@ frame_needed = 0, uses_anonymous_args = 0
 301 0000 00B5     		push	{lr}
 302              		.cfi_def_cfa_offset 4
 303              		.cfi_offset 14, -4
 304 0002 83B0     		sub	sp, sp, #12
 305              		.cfi_def_cfa_offset 16
 306              		.loc 1 163 0
 307 0004 154B     		ldr	r3, .L14
 308 0006 1B68     		ldr	r3, [r3]
 309 0008 0193     		str	r3, [sp, #4]
 310              		.loc 1 166 0
 311 000a FFF7FEFF 		bl	_stats_increase_irq
 312 000e FFF7FEFF 		bl	_dbg_check_enter_isr
 313              		.loc 1 168 0
 314 0012 134B     		ldr	r3, .L14+4
 315 0014 1B68     		ldr	r3, [r3]
 316 0016 1B0C     		lsrs	r3, r3, #16
 317 0018 03F03D03 		and	r3, r3, #61
 318 001c 0093     		str	r3, [sp]
 319              		.loc 1 169 0
 320 001e 104A     		ldr	r2, .L14+4
 321 0020 009B     		ldr	r3, [sp]
 322 0022 1B04     		lsls	r3, r3, #16
 323 0024 9360     		str	r3, [r2, #8]
 324              		.loc 1 170 0
 325 0026 0F4B     		ldr	r3, .L14+8
 326 0028 1B69     		ldr	r3, [r3, #16]
 327 002a 002B     		cmp	r3, #0
 328 002c 06D0     		beq	.L12
 329              		.loc 1 171 0
 330 002e 0D4B     		ldr	r3, .L14+8
 331 0030 1B69     		ldr	r3, [r3, #16]
 332 0032 0C4A     		ldr	r2, .L14+8
 333 0034 5269     		ldr	r2, [r2, #20]
 334 0036 0099     		ldr	r1, [sp]
 335 0038 1046     		mov	r0, r2
 336 003a 9847     		blx	r3
 337              	.LVL2:
 338              	.L12:
ARM GAS  C:\Users\Megaport\AppData\Local\Temp\ccttL01Q.s 			page 7


 339              		.loc 1 173 0
 340 003c FFF7FEFF 		bl	_dbg_check_leave_isr
 341 0040 FFF7FEFF 		bl	_port_irq_epilogue
 342              		.loc 1 174 0
 343 0044 00BF     		nop
 344 0046 054B     		ldr	r3, .L14
 345 0048 019A     		ldr	r2, [sp, #4]
 346 004a 1B68     		ldr	r3, [r3]
 347 004c 9A42     		cmp	r2, r3
 348 004e 01D0     		beq	.L13
 349 0050 FFF7FEFF 		bl	__stack_chk_fail
 350              	.L13:
 351 0054 03B0     		add	sp, sp, #12
 352              		.cfi_def_cfa_offset 4
 353              		@ sp needed
 354 0056 5DF804FB 		ldr	pc, [sp], #4
 355              	.L15:
 356 005a 00BF     		.align	2
 357              	.L14:
 358 005c 00000000 		.word	__stack_chk_guard
 359 0060 00600240 		.word	1073897472
 360 0064 00000000 		.word	dma_isr_redir
 361              		.cfi_endproc
 362              	.LFE258:
 363              		.size	Vector74, .-Vector74
 364              		.section	.text.Vector78,"ax",%progbits
 365              		.align	1
 366              		.p2align 4,,15
 367              		.global	Vector78
 368              		.syntax unified
 369              		.thumb
 370              		.thumb_func
 371              		.fpu fpv4-sp-d16
 372              		.type	Vector78, %function
 373              	Vector78:
 374              	.LFB259:
 375              		.loc 1 181 0
 376              		.cfi_startproc
 377              		@ args = 0, pretend = 0, frame = 8
 378              		@ frame_needed = 0, uses_anonymous_args = 0
 379 0000 00B5     		push	{lr}
 380              		.cfi_def_cfa_offset 4
 381              		.cfi_offset 14, -4
 382 0002 83B0     		sub	sp, sp, #12
 383              		.cfi_def_cfa_offset 16
 384              		.loc 1 181 0
 385 0004 154B     		ldr	r3, .L19
 386 0006 1B68     		ldr	r3, [r3]
 387 0008 0193     		str	r3, [sp, #4]
 388              		.loc 1 184 0
 389 000a FFF7FEFF 		bl	_stats_increase_irq
 390 000e FFF7FEFF 		bl	_dbg_check_enter_isr
 391              		.loc 1 186 0
 392 0012 134B     		ldr	r3, .L19+4
 393 0014 1B68     		ldr	r3, [r3]
 394 0016 9B0D     		lsrs	r3, r3, #22
 395 0018 03F03D03 		and	r3, r3, #61
ARM GAS  C:\Users\Megaport\AppData\Local\Temp\ccttL01Q.s 			page 8


 396 001c 0093     		str	r3, [sp]
 397              		.loc 1 187 0
 398 001e 104A     		ldr	r2, .L19+4
 399 0020 009B     		ldr	r3, [sp]
 400 0022 9B05     		lsls	r3, r3, #22
 401 0024 9360     		str	r3, [r2, #8]
 402              		.loc 1 188 0
 403 0026 0F4B     		ldr	r3, .L19+8
 404 0028 9B69     		ldr	r3, [r3, #24]
 405 002a 002B     		cmp	r3, #0
 406 002c 06D0     		beq	.L17
 407              		.loc 1 189 0
 408 002e 0D4B     		ldr	r3, .L19+8
 409 0030 9B69     		ldr	r3, [r3, #24]
 410 0032 0C4A     		ldr	r2, .L19+8
 411 0034 D269     		ldr	r2, [r2, #28]
 412 0036 0099     		ldr	r1, [sp]
 413 0038 1046     		mov	r0, r2
 414 003a 9847     		blx	r3
 415              	.LVL3:
 416              	.L17:
 417              		.loc 1 191 0
 418 003c FFF7FEFF 		bl	_dbg_check_leave_isr
 419 0040 FFF7FEFF 		bl	_port_irq_epilogue
 420              		.loc 1 192 0
 421 0044 00BF     		nop
 422 0046 054B     		ldr	r3, .L19
 423 0048 019A     		ldr	r2, [sp, #4]
 424 004a 1B68     		ldr	r3, [r3]
 425 004c 9A42     		cmp	r2, r3
 426 004e 01D0     		beq	.L18
 427 0050 FFF7FEFF 		bl	__stack_chk_fail
 428              	.L18:
 429 0054 03B0     		add	sp, sp, #12
 430              		.cfi_def_cfa_offset 4
 431              		@ sp needed
 432 0056 5DF804FB 		ldr	pc, [sp], #4
 433              	.L20:
 434 005a 00BF     		.align	2
 435              	.L19:
 436 005c 00000000 		.word	__stack_chk_guard
 437 0060 00600240 		.word	1073897472
 438 0064 00000000 		.word	dma_isr_redir
 439              		.cfi_endproc
 440              	.LFE259:
 441              		.size	Vector78, .-Vector78
 442              		.section	.text.Vector7C,"ax",%progbits
 443              		.align	1
 444              		.p2align 4,,15
 445              		.global	Vector7C
 446              		.syntax unified
 447              		.thumb
 448              		.thumb_func
 449              		.fpu fpv4-sp-d16
 450              		.type	Vector7C, %function
 451              	Vector7C:
 452              	.LFB260:
ARM GAS  C:\Users\Megaport\AppData\Local\Temp\ccttL01Q.s 			page 9


 453              		.loc 1 199 0
 454              		.cfi_startproc
 455              		@ args = 0, pretend = 0, frame = 8
 456              		@ frame_needed = 0, uses_anonymous_args = 0
 457 0000 00B5     		push	{lr}
 458              		.cfi_def_cfa_offset 4
 459              		.cfi_offset 14, -4
 460 0002 83B0     		sub	sp, sp, #12
 461              		.cfi_def_cfa_offset 16
 462              		.loc 1 199 0
 463 0004 144B     		ldr	r3, .L24
 464 0006 1B68     		ldr	r3, [r3]
 465 0008 0193     		str	r3, [sp, #4]
 466              		.loc 1 202 0
 467 000a FFF7FEFF 		bl	_stats_increase_irq
 468 000e FFF7FEFF 		bl	_dbg_check_enter_isr
 469              		.loc 1 204 0
 470 0012 124B     		ldr	r3, .L24+4
 471 0014 5B68     		ldr	r3, [r3, #4]
 472 0016 03F03D03 		and	r3, r3, #61
 473 001a 0093     		str	r3, [sp]
 474              		.loc 1 205 0
 475 001c 0F4A     		ldr	r2, .L24+4
 476 001e 009B     		ldr	r3, [sp]
 477 0020 D360     		str	r3, [r2, #12]
 478              		.loc 1 206 0
 479 0022 0F4B     		ldr	r3, .L24+8
 480 0024 1B6A     		ldr	r3, [r3, #32]
 481 0026 002B     		cmp	r3, #0
 482 0028 06D0     		beq	.L22
 483              		.loc 1 207 0
 484 002a 0D4B     		ldr	r3, .L24+8
 485 002c 1B6A     		ldr	r3, [r3, #32]
 486 002e 0C4A     		ldr	r2, .L24+8
 487 0030 526A     		ldr	r2, [r2, #36]
 488 0032 0099     		ldr	r1, [sp]
 489 0034 1046     		mov	r0, r2
 490 0036 9847     		blx	r3
 491              	.LVL4:
 492              	.L22:
 493              		.loc 1 209 0
 494 0038 FFF7FEFF 		bl	_dbg_check_leave_isr
 495 003c FFF7FEFF 		bl	_port_irq_epilogue
 496              		.loc 1 210 0
 497 0040 00BF     		nop
 498 0042 054B     		ldr	r3, .L24
 499 0044 019A     		ldr	r2, [sp, #4]
 500 0046 1B68     		ldr	r3, [r3]
 501 0048 9A42     		cmp	r2, r3
 502 004a 01D0     		beq	.L23
 503 004c FFF7FEFF 		bl	__stack_chk_fail
 504              	.L23:
 505 0050 03B0     		add	sp, sp, #12
 506              		.cfi_def_cfa_offset 4
 507              		@ sp needed
 508 0052 5DF804FB 		ldr	pc, [sp], #4
 509              	.L25:
ARM GAS  C:\Users\Megaport\AppData\Local\Temp\ccttL01Q.s 			page 10


 510 0056 00BF     		.align	2
 511              	.L24:
 512 0058 00000000 		.word	__stack_chk_guard
 513 005c 00600240 		.word	1073897472
 514 0060 00000000 		.word	dma_isr_redir
 515              		.cfi_endproc
 516              	.LFE260:
 517              		.size	Vector7C, .-Vector7C
 518              		.section	.text.Vector80,"ax",%progbits
 519              		.align	1
 520              		.p2align 4,,15
 521              		.global	Vector80
 522              		.syntax unified
 523              		.thumb
 524              		.thumb_func
 525              		.fpu fpv4-sp-d16
 526              		.type	Vector80, %function
 527              	Vector80:
 528              	.LFB261:
 529              		.loc 1 217 0
 530              		.cfi_startproc
 531              		@ args = 0, pretend = 0, frame = 8
 532              		@ frame_needed = 0, uses_anonymous_args = 0
 533 0000 00B5     		push	{lr}
 534              		.cfi_def_cfa_offset 4
 535              		.cfi_offset 14, -4
 536 0002 83B0     		sub	sp, sp, #12
 537              		.cfi_def_cfa_offset 16
 538              		.loc 1 217 0
 539 0004 154B     		ldr	r3, .L29
 540 0006 1B68     		ldr	r3, [r3]
 541 0008 0193     		str	r3, [sp, #4]
 542              		.loc 1 220 0
 543 000a FFF7FEFF 		bl	_stats_increase_irq
 544 000e FFF7FEFF 		bl	_dbg_check_enter_isr
 545              		.loc 1 222 0
 546 0012 134B     		ldr	r3, .L29+4
 547 0014 5B68     		ldr	r3, [r3, #4]
 548 0016 9B09     		lsrs	r3, r3, #6
 549 0018 03F03D03 		and	r3, r3, #61
 550 001c 0093     		str	r3, [sp]
 551              		.loc 1 223 0
 552 001e 104A     		ldr	r2, .L29+4
 553 0020 009B     		ldr	r3, [sp]
 554 0022 9B01     		lsls	r3, r3, #6
 555 0024 D360     		str	r3, [r2, #12]
 556              		.loc 1 224 0
 557 0026 0F4B     		ldr	r3, .L29+8
 558 0028 9B6A     		ldr	r3, [r3, #40]
 559 002a 002B     		cmp	r3, #0
 560 002c 06D0     		beq	.L27
 561              		.loc 1 225 0
 562 002e 0D4B     		ldr	r3, .L29+8
 563 0030 9B6A     		ldr	r3, [r3, #40]
 564 0032 0C4A     		ldr	r2, .L29+8
 565 0034 D26A     		ldr	r2, [r2, #44]
 566 0036 0099     		ldr	r1, [sp]
ARM GAS  C:\Users\Megaport\AppData\Local\Temp\ccttL01Q.s 			page 11


 567 0038 1046     		mov	r0, r2
 568 003a 9847     		blx	r3
 569              	.LVL5:
 570              	.L27:
 571              		.loc 1 227 0
 572 003c FFF7FEFF 		bl	_dbg_check_leave_isr
 573 0040 FFF7FEFF 		bl	_port_irq_epilogue
 574              		.loc 1 228 0
 575 0044 00BF     		nop
 576 0046 054B     		ldr	r3, .L29
 577 0048 019A     		ldr	r2, [sp, #4]
 578 004a 1B68     		ldr	r3, [r3]
 579 004c 9A42     		cmp	r2, r3
 580 004e 01D0     		beq	.L28
 581 0050 FFF7FEFF 		bl	__stack_chk_fail
 582              	.L28:
 583 0054 03B0     		add	sp, sp, #12
 584              		.cfi_def_cfa_offset 4
 585              		@ sp needed
 586 0056 5DF804FB 		ldr	pc, [sp], #4
 587              	.L30:
 588 005a 00BF     		.align	2
 589              	.L29:
 590 005c 00000000 		.word	__stack_chk_guard
 591 0060 00600240 		.word	1073897472
 592 0064 00000000 		.word	dma_isr_redir
 593              		.cfi_endproc
 594              	.LFE261:
 595              		.size	Vector80, .-Vector80
 596              		.section	.text.Vector84,"ax",%progbits
 597              		.align	1
 598              		.p2align 4,,15
 599              		.global	Vector84
 600              		.syntax unified
 601              		.thumb
 602              		.thumb_func
 603              		.fpu fpv4-sp-d16
 604              		.type	Vector84, %function
 605              	Vector84:
 606              	.LFB262:
 607              		.loc 1 235 0
 608              		.cfi_startproc
 609              		@ args = 0, pretend = 0, frame = 8
 610              		@ frame_needed = 0, uses_anonymous_args = 0
 611 0000 00B5     		push	{lr}
 612              		.cfi_def_cfa_offset 4
 613              		.cfi_offset 14, -4
 614 0002 83B0     		sub	sp, sp, #12
 615              		.cfi_def_cfa_offset 16
 616              		.loc 1 235 0
 617 0004 154B     		ldr	r3, .L34
 618 0006 1B68     		ldr	r3, [r3]
 619 0008 0193     		str	r3, [sp, #4]
 620              		.loc 1 238 0
 621 000a FFF7FEFF 		bl	_stats_increase_irq
 622 000e FFF7FEFF 		bl	_dbg_check_enter_isr
 623              		.loc 1 240 0
ARM GAS  C:\Users\Megaport\AppData\Local\Temp\ccttL01Q.s 			page 12


 624 0012 134B     		ldr	r3, .L34+4
 625 0014 5B68     		ldr	r3, [r3, #4]
 626 0016 1B0C     		lsrs	r3, r3, #16
 627 0018 03F03D03 		and	r3, r3, #61
 628 001c 0093     		str	r3, [sp]
 629              		.loc 1 241 0
 630 001e 104A     		ldr	r2, .L34+4
 631 0020 009B     		ldr	r3, [sp]
 632 0022 1B04     		lsls	r3, r3, #16
 633 0024 D360     		str	r3, [r2, #12]
 634              		.loc 1 242 0
 635 0026 0F4B     		ldr	r3, .L34+8
 636 0028 1B6B     		ldr	r3, [r3, #48]
 637 002a 002B     		cmp	r3, #0
 638 002c 06D0     		beq	.L32
 639              		.loc 1 243 0
 640 002e 0D4B     		ldr	r3, .L34+8
 641 0030 1B6B     		ldr	r3, [r3, #48]
 642 0032 0C4A     		ldr	r2, .L34+8
 643 0034 526B     		ldr	r2, [r2, #52]
 644 0036 0099     		ldr	r1, [sp]
 645 0038 1046     		mov	r0, r2
 646 003a 9847     		blx	r3
 647              	.LVL6:
 648              	.L32:
 649              		.loc 1 245 0
 650 003c FFF7FEFF 		bl	_dbg_check_leave_isr
 651 0040 FFF7FEFF 		bl	_port_irq_epilogue
 652              		.loc 1 246 0
 653 0044 00BF     		nop
 654 0046 054B     		ldr	r3, .L34
 655 0048 019A     		ldr	r2, [sp, #4]
 656 004a 1B68     		ldr	r3, [r3]
 657 004c 9A42     		cmp	r2, r3
 658 004e 01D0     		beq	.L33
 659 0050 FFF7FEFF 		bl	__stack_chk_fail
 660              	.L33:
 661 0054 03B0     		add	sp, sp, #12
 662              		.cfi_def_cfa_offset 4
 663              		@ sp needed
 664 0056 5DF804FB 		ldr	pc, [sp], #4
 665              	.L35:
 666 005a 00BF     		.align	2
 667              	.L34:
 668 005c 00000000 		.word	__stack_chk_guard
 669 0060 00600240 		.word	1073897472
 670 0064 00000000 		.word	dma_isr_redir
 671              		.cfi_endproc
 672              	.LFE262:
 673              		.size	Vector84, .-Vector84
 674              		.section	.text.VectorFC,"ax",%progbits
 675              		.align	1
 676              		.p2align 4,,15
 677              		.global	VectorFC
 678              		.syntax unified
 679              		.thumb
 680              		.thumb_func
ARM GAS  C:\Users\Megaport\AppData\Local\Temp\ccttL01Q.s 			page 13


 681              		.fpu fpv4-sp-d16
 682              		.type	VectorFC, %function
 683              	VectorFC:
 684              	.LFB263:
 685              		.loc 1 253 0
 686              		.cfi_startproc
 687              		@ args = 0, pretend = 0, frame = 8
 688              		@ frame_needed = 0, uses_anonymous_args = 0
 689 0000 00B5     		push	{lr}
 690              		.cfi_def_cfa_offset 4
 691              		.cfi_offset 14, -4
 692 0002 83B0     		sub	sp, sp, #12
 693              		.cfi_def_cfa_offset 16
 694              		.loc 1 253 0
 695 0004 154B     		ldr	r3, .L39
 696 0006 1B68     		ldr	r3, [r3]
 697 0008 0193     		str	r3, [sp, #4]
 698              		.loc 1 256 0
 699 000a FFF7FEFF 		bl	_stats_increase_irq
 700 000e FFF7FEFF 		bl	_dbg_check_enter_isr
 701              		.loc 1 258 0
 702 0012 134B     		ldr	r3, .L39+4
 703 0014 5B68     		ldr	r3, [r3, #4]
 704 0016 9B0D     		lsrs	r3, r3, #22
 705 0018 03F03D03 		and	r3, r3, #61
 706 001c 0093     		str	r3, [sp]
 707              		.loc 1 259 0
 708 001e 104A     		ldr	r2, .L39+4
 709 0020 009B     		ldr	r3, [sp]
 710 0022 9B05     		lsls	r3, r3, #22
 711 0024 D360     		str	r3, [r2, #12]
 712              		.loc 1 260 0
 713 0026 0F4B     		ldr	r3, .L39+8
 714 0028 9B6B     		ldr	r3, [r3, #56]
 715 002a 002B     		cmp	r3, #0
 716 002c 06D0     		beq	.L37
 717              		.loc 1 261 0
 718 002e 0D4B     		ldr	r3, .L39+8
 719 0030 9B6B     		ldr	r3, [r3, #56]
 720 0032 0C4A     		ldr	r2, .L39+8
 721 0034 D26B     		ldr	r2, [r2, #60]
 722 0036 0099     		ldr	r1, [sp]
 723 0038 1046     		mov	r0, r2
 724 003a 9847     		blx	r3
 725              	.LVL7:
 726              	.L37:
 727              		.loc 1 263 0
 728 003c FFF7FEFF 		bl	_dbg_check_leave_isr
 729 0040 FFF7FEFF 		bl	_port_irq_epilogue
 730              		.loc 1 264 0
 731 0044 00BF     		nop
 732 0046 054B     		ldr	r3, .L39
 733 0048 019A     		ldr	r2, [sp, #4]
 734 004a 1B68     		ldr	r3, [r3]
 735 004c 9A42     		cmp	r2, r3
 736 004e 01D0     		beq	.L38
 737 0050 FFF7FEFF 		bl	__stack_chk_fail
ARM GAS  C:\Users\Megaport\AppData\Local\Temp\ccttL01Q.s 			page 14


 738              	.L38:
 739 0054 03B0     		add	sp, sp, #12
 740              		.cfi_def_cfa_offset 4
 741              		@ sp needed
 742 0056 5DF804FB 		ldr	pc, [sp], #4
 743              	.L40:
 744 005a 00BF     		.align	2
 745              	.L39:
 746 005c 00000000 		.word	__stack_chk_guard
 747 0060 00600240 		.word	1073897472
 748 0064 00000000 		.word	dma_isr_redir
 749              		.cfi_endproc
 750              	.LFE263:
 751              		.size	VectorFC, .-VectorFC
 752              		.section	.text.Vector120,"ax",%progbits
 753              		.align	1
 754              		.p2align 4,,15
 755              		.global	Vector120
 756              		.syntax unified
 757              		.thumb
 758              		.thumb_func
 759              		.fpu fpv4-sp-d16
 760              		.type	Vector120, %function
 761              	Vector120:
 762              	.LFB264:
 763              		.loc 1 271 0
 764              		.cfi_startproc
 765              		@ args = 0, pretend = 0, frame = 8
 766              		@ frame_needed = 0, uses_anonymous_args = 0
 767 0000 00B5     		push	{lr}
 768              		.cfi_def_cfa_offset 4
 769              		.cfi_offset 14, -4
 770 0002 83B0     		sub	sp, sp, #12
 771              		.cfi_def_cfa_offset 16
 772              		.loc 1 271 0
 773 0004 144B     		ldr	r3, .L44
 774 0006 1B68     		ldr	r3, [r3]
 775 0008 0193     		str	r3, [sp, #4]
 776              		.loc 1 274 0
 777 000a FFF7FEFF 		bl	_stats_increase_irq
 778 000e FFF7FEFF 		bl	_dbg_check_enter_isr
 779              		.loc 1 276 0
 780 0012 124B     		ldr	r3, .L44+4
 781 0014 1B68     		ldr	r3, [r3]
 782 0016 03F03D03 		and	r3, r3, #61
 783 001a 0093     		str	r3, [sp]
 784              		.loc 1 277 0
 785 001c 0F4A     		ldr	r2, .L44+4
 786 001e 009B     		ldr	r3, [sp]
 787 0020 9360     		str	r3, [r2, #8]
 788              		.loc 1 278 0
 789 0022 0F4B     		ldr	r3, .L44+8
 790 0024 1B6C     		ldr	r3, [r3, #64]
 791 0026 002B     		cmp	r3, #0
 792 0028 06D0     		beq	.L42
 793              		.loc 1 279 0
 794 002a 0D4B     		ldr	r3, .L44+8
ARM GAS  C:\Users\Megaport\AppData\Local\Temp\ccttL01Q.s 			page 15


 795 002c 1B6C     		ldr	r3, [r3, #64]
 796 002e 0C4A     		ldr	r2, .L44+8
 797 0030 526C     		ldr	r2, [r2, #68]
 798 0032 0099     		ldr	r1, [sp]
 799 0034 1046     		mov	r0, r2
 800 0036 9847     		blx	r3
 801              	.LVL8:
 802              	.L42:
 803              		.loc 1 281 0
 804 0038 FFF7FEFF 		bl	_dbg_check_leave_isr
 805 003c FFF7FEFF 		bl	_port_irq_epilogue
 806              		.loc 1 282 0
 807 0040 00BF     		nop
 808 0042 054B     		ldr	r3, .L44
 809 0044 019A     		ldr	r2, [sp, #4]
 810 0046 1B68     		ldr	r3, [r3]
 811 0048 9A42     		cmp	r2, r3
 812 004a 01D0     		beq	.L43
 813 004c FFF7FEFF 		bl	__stack_chk_fail
 814              	.L43:
 815 0050 03B0     		add	sp, sp, #12
 816              		.cfi_def_cfa_offset 4
 817              		@ sp needed
 818 0052 5DF804FB 		ldr	pc, [sp], #4
 819              	.L45:
 820 0056 00BF     		.align	2
 821              	.L44:
 822 0058 00000000 		.word	__stack_chk_guard
 823 005c 00640240 		.word	1073898496
 824 0060 00000000 		.word	dma_isr_redir
 825              		.cfi_endproc
 826              	.LFE264:
 827              		.size	Vector120, .-Vector120
 828              		.section	.text.Vector124,"ax",%progbits
 829              		.align	1
 830              		.p2align 4,,15
 831              		.global	Vector124
 832              		.syntax unified
 833              		.thumb
 834              		.thumb_func
 835              		.fpu fpv4-sp-d16
 836              		.type	Vector124, %function
 837              	Vector124:
 838              	.LFB265:
 839              		.loc 1 289 0
 840              		.cfi_startproc
 841              		@ args = 0, pretend = 0, frame = 8
 842              		@ frame_needed = 0, uses_anonymous_args = 0
 843 0000 00B5     		push	{lr}
 844              		.cfi_def_cfa_offset 4
 845              		.cfi_offset 14, -4
 846 0002 83B0     		sub	sp, sp, #12
 847              		.cfi_def_cfa_offset 16
 848              		.loc 1 289 0
 849 0004 154B     		ldr	r3, .L49
 850 0006 1B68     		ldr	r3, [r3]
 851 0008 0193     		str	r3, [sp, #4]
ARM GAS  C:\Users\Megaport\AppData\Local\Temp\ccttL01Q.s 			page 16


 852              		.loc 1 292 0
 853 000a FFF7FEFF 		bl	_stats_increase_irq
 854 000e FFF7FEFF 		bl	_dbg_check_enter_isr
 855              		.loc 1 294 0
 856 0012 134B     		ldr	r3, .L49+4
 857 0014 1B68     		ldr	r3, [r3]
 858 0016 9B09     		lsrs	r3, r3, #6
 859 0018 03F03D03 		and	r3, r3, #61
 860 001c 0093     		str	r3, [sp]
 861              		.loc 1 295 0
 862 001e 104A     		ldr	r2, .L49+4
 863 0020 009B     		ldr	r3, [sp]
 864 0022 9B01     		lsls	r3, r3, #6
 865 0024 9360     		str	r3, [r2, #8]
 866              		.loc 1 296 0
 867 0026 0F4B     		ldr	r3, .L49+8
 868 0028 9B6C     		ldr	r3, [r3, #72]
 869 002a 002B     		cmp	r3, #0
 870 002c 06D0     		beq	.L47
 871              		.loc 1 297 0
 872 002e 0D4B     		ldr	r3, .L49+8
 873 0030 9B6C     		ldr	r3, [r3, #72]
 874 0032 0C4A     		ldr	r2, .L49+8
 875 0034 D26C     		ldr	r2, [r2, #76]
 876 0036 0099     		ldr	r1, [sp]
 877 0038 1046     		mov	r0, r2
 878 003a 9847     		blx	r3
 879              	.LVL9:
 880              	.L47:
 881              		.loc 1 299 0
 882 003c FFF7FEFF 		bl	_dbg_check_leave_isr
 883 0040 FFF7FEFF 		bl	_port_irq_epilogue
 884              		.loc 1 300 0
 885 0044 00BF     		nop
 886 0046 054B     		ldr	r3, .L49
 887 0048 019A     		ldr	r2, [sp, #4]
 888 004a 1B68     		ldr	r3, [r3]
 889 004c 9A42     		cmp	r2, r3
 890 004e 01D0     		beq	.L48
 891 0050 FFF7FEFF 		bl	__stack_chk_fail
 892              	.L48:
 893 0054 03B0     		add	sp, sp, #12
 894              		.cfi_def_cfa_offset 4
 895              		@ sp needed
 896 0056 5DF804FB 		ldr	pc, [sp], #4
 897              	.L50:
 898 005a 00BF     		.align	2
 899              	.L49:
 900 005c 00000000 		.word	__stack_chk_guard
 901 0060 00640240 		.word	1073898496
 902 0064 00000000 		.word	dma_isr_redir
 903              		.cfi_endproc
 904              	.LFE265:
 905              		.size	Vector124, .-Vector124
 906              		.section	.text.Vector128,"ax",%progbits
 907              		.align	1
 908              		.p2align 4,,15
ARM GAS  C:\Users\Megaport\AppData\Local\Temp\ccttL01Q.s 			page 17


 909              		.global	Vector128
 910              		.syntax unified
 911              		.thumb
 912              		.thumb_func
 913              		.fpu fpv4-sp-d16
 914              		.type	Vector128, %function
 915              	Vector128:
 916              	.LFB266:
 917              		.loc 1 307 0
 918              		.cfi_startproc
 919              		@ args = 0, pretend = 0, frame = 8
 920              		@ frame_needed = 0, uses_anonymous_args = 0
 921 0000 00B5     		push	{lr}
 922              		.cfi_def_cfa_offset 4
 923              		.cfi_offset 14, -4
 924 0002 83B0     		sub	sp, sp, #12
 925              		.cfi_def_cfa_offset 16
 926              		.loc 1 307 0
 927 0004 154B     		ldr	r3, .L54
 928 0006 1B68     		ldr	r3, [r3]
 929 0008 0193     		str	r3, [sp, #4]
 930              		.loc 1 310 0
 931 000a FFF7FEFF 		bl	_stats_increase_irq
 932 000e FFF7FEFF 		bl	_dbg_check_enter_isr
 933              		.loc 1 312 0
 934 0012 134B     		ldr	r3, .L54+4
 935 0014 1B68     		ldr	r3, [r3]
 936 0016 1B0C     		lsrs	r3, r3, #16
 937 0018 03F03D03 		and	r3, r3, #61
 938 001c 0093     		str	r3, [sp]
 939              		.loc 1 313 0
 940 001e 104A     		ldr	r2, .L54+4
 941 0020 009B     		ldr	r3, [sp]
 942 0022 1B04     		lsls	r3, r3, #16
 943 0024 9360     		str	r3, [r2, #8]
 944              		.loc 1 314 0
 945 0026 0F4B     		ldr	r3, .L54+8
 946 0028 1B6D     		ldr	r3, [r3, #80]
 947 002a 002B     		cmp	r3, #0
 948 002c 06D0     		beq	.L52
 949              		.loc 1 315 0
 950 002e 0D4B     		ldr	r3, .L54+8
 951 0030 1B6D     		ldr	r3, [r3, #80]
 952 0032 0C4A     		ldr	r2, .L54+8
 953 0034 526D     		ldr	r2, [r2, #84]
 954 0036 0099     		ldr	r1, [sp]
 955 0038 1046     		mov	r0, r2
 956 003a 9847     		blx	r3
 957              	.LVL10:
 958              	.L52:
 959              		.loc 1 317 0
 960 003c FFF7FEFF 		bl	_dbg_check_leave_isr
 961 0040 FFF7FEFF 		bl	_port_irq_epilogue
 962              		.loc 1 318 0
 963 0044 00BF     		nop
 964 0046 054B     		ldr	r3, .L54
 965 0048 019A     		ldr	r2, [sp, #4]
ARM GAS  C:\Users\Megaport\AppData\Local\Temp\ccttL01Q.s 			page 18


 966 004a 1B68     		ldr	r3, [r3]
 967 004c 9A42     		cmp	r2, r3
 968 004e 01D0     		beq	.L53
 969 0050 FFF7FEFF 		bl	__stack_chk_fail
 970              	.L53:
 971 0054 03B0     		add	sp, sp, #12
 972              		.cfi_def_cfa_offset 4
 973              		@ sp needed
 974 0056 5DF804FB 		ldr	pc, [sp], #4
 975              	.L55:
 976 005a 00BF     		.align	2
 977              	.L54:
 978 005c 00000000 		.word	__stack_chk_guard
 979 0060 00640240 		.word	1073898496
 980 0064 00000000 		.word	dma_isr_redir
 981              		.cfi_endproc
 982              	.LFE266:
 983              		.size	Vector128, .-Vector128
 984              		.section	.text.Vector12C,"ax",%progbits
 985              		.align	1
 986              		.p2align 4,,15
 987              		.global	Vector12C
 988              		.syntax unified
 989              		.thumb
 990              		.thumb_func
 991              		.fpu fpv4-sp-d16
 992              		.type	Vector12C, %function
 993              	Vector12C:
 994              	.LFB267:
 995              		.loc 1 325 0
 996              		.cfi_startproc
 997              		@ args = 0, pretend = 0, frame = 8
 998              		@ frame_needed = 0, uses_anonymous_args = 0
 999 0000 00B5     		push	{lr}
 1000              		.cfi_def_cfa_offset 4
 1001              		.cfi_offset 14, -4
 1002 0002 83B0     		sub	sp, sp, #12
 1003              		.cfi_def_cfa_offset 16
 1004              		.loc 1 325 0
 1005 0004 154B     		ldr	r3, .L59
 1006 0006 1B68     		ldr	r3, [r3]
 1007 0008 0193     		str	r3, [sp, #4]
 1008              		.loc 1 328 0
 1009 000a FFF7FEFF 		bl	_stats_increase_irq
 1010 000e FFF7FEFF 		bl	_dbg_check_enter_isr
 1011              		.loc 1 330 0
 1012 0012 134B     		ldr	r3, .L59+4
 1013 0014 1B68     		ldr	r3, [r3]
 1014 0016 9B0D     		lsrs	r3, r3, #22
 1015 0018 03F03D03 		and	r3, r3, #61
 1016 001c 0093     		str	r3, [sp]
 1017              		.loc 1 331 0
 1018 001e 104A     		ldr	r2, .L59+4
 1019 0020 009B     		ldr	r3, [sp]
 1020 0022 9B05     		lsls	r3, r3, #22
 1021 0024 9360     		str	r3, [r2, #8]
 1022              		.loc 1 332 0
ARM GAS  C:\Users\Megaport\AppData\Local\Temp\ccttL01Q.s 			page 19


 1023 0026 0F4B     		ldr	r3, .L59+8
 1024 0028 9B6D     		ldr	r3, [r3, #88]
 1025 002a 002B     		cmp	r3, #0
 1026 002c 06D0     		beq	.L57
 1027              		.loc 1 333 0
 1028 002e 0D4B     		ldr	r3, .L59+8
 1029 0030 9B6D     		ldr	r3, [r3, #88]
 1030 0032 0C4A     		ldr	r2, .L59+8
 1031 0034 D26D     		ldr	r2, [r2, #92]
 1032 0036 0099     		ldr	r1, [sp]
 1033 0038 1046     		mov	r0, r2
 1034 003a 9847     		blx	r3
 1035              	.LVL11:
 1036              	.L57:
 1037              		.loc 1 335 0
 1038 003c FFF7FEFF 		bl	_dbg_check_leave_isr
 1039 0040 FFF7FEFF 		bl	_port_irq_epilogue
 1040              		.loc 1 336 0
 1041 0044 00BF     		nop
 1042 0046 054B     		ldr	r3, .L59
 1043 0048 019A     		ldr	r2, [sp, #4]
 1044 004a 1B68     		ldr	r3, [r3]
 1045 004c 9A42     		cmp	r2, r3
 1046 004e 01D0     		beq	.L58
 1047 0050 FFF7FEFF 		bl	__stack_chk_fail
 1048              	.L58:
 1049 0054 03B0     		add	sp, sp, #12
 1050              		.cfi_def_cfa_offset 4
 1051              		@ sp needed
 1052 0056 5DF804FB 		ldr	pc, [sp], #4
 1053              	.L60:
 1054 005a 00BF     		.align	2
 1055              	.L59:
 1056 005c 00000000 		.word	__stack_chk_guard
 1057 0060 00640240 		.word	1073898496
 1058 0064 00000000 		.word	dma_isr_redir
 1059              		.cfi_endproc
 1060              	.LFE267:
 1061              		.size	Vector12C, .-Vector12C
 1062              		.section	.text.Vector130,"ax",%progbits
 1063              		.align	1
 1064              		.p2align 4,,15
 1065              		.global	Vector130
 1066              		.syntax unified
 1067              		.thumb
 1068              		.thumb_func
 1069              		.fpu fpv4-sp-d16
 1070              		.type	Vector130, %function
 1071              	Vector130:
 1072              	.LFB268:
 1073              		.loc 1 343 0
 1074              		.cfi_startproc
 1075              		@ args = 0, pretend = 0, frame = 8
 1076              		@ frame_needed = 0, uses_anonymous_args = 0
 1077 0000 00B5     		push	{lr}
 1078              		.cfi_def_cfa_offset 4
 1079              		.cfi_offset 14, -4
ARM GAS  C:\Users\Megaport\AppData\Local\Temp\ccttL01Q.s 			page 20


 1080 0002 83B0     		sub	sp, sp, #12
 1081              		.cfi_def_cfa_offset 16
 1082              		.loc 1 343 0
 1083 0004 144B     		ldr	r3, .L64
 1084 0006 1B68     		ldr	r3, [r3]
 1085 0008 0193     		str	r3, [sp, #4]
 1086              		.loc 1 346 0
 1087 000a FFF7FEFF 		bl	_stats_increase_irq
 1088 000e FFF7FEFF 		bl	_dbg_check_enter_isr
 1089              		.loc 1 348 0
 1090 0012 124B     		ldr	r3, .L64+4
 1091 0014 5B68     		ldr	r3, [r3, #4]
 1092 0016 03F03D03 		and	r3, r3, #61
 1093 001a 0093     		str	r3, [sp]
 1094              		.loc 1 349 0
 1095 001c 0F4A     		ldr	r2, .L64+4
 1096 001e 009B     		ldr	r3, [sp]
 1097 0020 D360     		str	r3, [r2, #12]
 1098              		.loc 1 350 0
 1099 0022 0F4B     		ldr	r3, .L64+8
 1100 0024 1B6E     		ldr	r3, [r3, #96]
 1101 0026 002B     		cmp	r3, #0
 1102 0028 06D0     		beq	.L62
 1103              		.loc 1 351 0
 1104 002a 0D4B     		ldr	r3, .L64+8
 1105 002c 1B6E     		ldr	r3, [r3, #96]
 1106 002e 0C4A     		ldr	r2, .L64+8
 1107 0030 526E     		ldr	r2, [r2, #100]
 1108 0032 0099     		ldr	r1, [sp]
 1109 0034 1046     		mov	r0, r2
 1110 0036 9847     		blx	r3
 1111              	.LVL12:
 1112              	.L62:
 1113              		.loc 1 353 0
 1114 0038 FFF7FEFF 		bl	_dbg_check_leave_isr
 1115 003c FFF7FEFF 		bl	_port_irq_epilogue
 1116              		.loc 1 354 0
 1117 0040 00BF     		nop
 1118 0042 054B     		ldr	r3, .L64
 1119 0044 019A     		ldr	r2, [sp, #4]
 1120 0046 1B68     		ldr	r3, [r3]
 1121 0048 9A42     		cmp	r2, r3
 1122 004a 01D0     		beq	.L63
 1123 004c FFF7FEFF 		bl	__stack_chk_fail
 1124              	.L63:
 1125 0050 03B0     		add	sp, sp, #12
 1126              		.cfi_def_cfa_offset 4
 1127              		@ sp needed
 1128 0052 5DF804FB 		ldr	pc, [sp], #4
 1129              	.L65:
 1130 0056 00BF     		.align	2
 1131              	.L64:
 1132 0058 00000000 		.word	__stack_chk_guard
 1133 005c 00640240 		.word	1073898496
 1134 0060 00000000 		.word	dma_isr_redir
 1135              		.cfi_endproc
 1136              	.LFE268:
ARM GAS  C:\Users\Megaport\AppData\Local\Temp\ccttL01Q.s 			page 21


 1137              		.size	Vector130, .-Vector130
 1138              		.section	.text.Vector150,"ax",%progbits
 1139              		.align	1
 1140              		.p2align 4,,15
 1141              		.global	Vector150
 1142              		.syntax unified
 1143              		.thumb
 1144              		.thumb_func
 1145              		.fpu fpv4-sp-d16
 1146              		.type	Vector150, %function
 1147              	Vector150:
 1148              	.LFB269:
 1149              		.loc 1 361 0
 1150              		.cfi_startproc
 1151              		@ args = 0, pretend = 0, frame = 8
 1152              		@ frame_needed = 0, uses_anonymous_args = 0
 1153 0000 00B5     		push	{lr}
 1154              		.cfi_def_cfa_offset 4
 1155              		.cfi_offset 14, -4
 1156 0002 83B0     		sub	sp, sp, #12
 1157              		.cfi_def_cfa_offset 16
 1158              		.loc 1 361 0
 1159 0004 154B     		ldr	r3, .L69
 1160 0006 1B68     		ldr	r3, [r3]
 1161 0008 0193     		str	r3, [sp, #4]
 1162              		.loc 1 364 0
 1163 000a FFF7FEFF 		bl	_stats_increase_irq
 1164 000e FFF7FEFF 		bl	_dbg_check_enter_isr
 1165              		.loc 1 366 0
 1166 0012 134B     		ldr	r3, .L69+4
 1167 0014 5B68     		ldr	r3, [r3, #4]
 1168 0016 9B09     		lsrs	r3, r3, #6
 1169 0018 03F03D03 		and	r3, r3, #61
 1170 001c 0093     		str	r3, [sp]
 1171              		.loc 1 367 0
 1172 001e 104A     		ldr	r2, .L69+4
 1173 0020 009B     		ldr	r3, [sp]
 1174 0022 9B01     		lsls	r3, r3, #6
 1175 0024 D360     		str	r3, [r2, #12]
 1176              		.loc 1 368 0
 1177 0026 0F4B     		ldr	r3, .L69+8
 1178 0028 9B6E     		ldr	r3, [r3, #104]
 1179 002a 002B     		cmp	r3, #0
 1180 002c 06D0     		beq	.L67
 1181              		.loc 1 369 0
 1182 002e 0D4B     		ldr	r3, .L69+8
 1183 0030 9B6E     		ldr	r3, [r3, #104]
 1184 0032 0C4A     		ldr	r2, .L69+8
 1185 0034 D26E     		ldr	r2, [r2, #108]
 1186 0036 0099     		ldr	r1, [sp]
 1187 0038 1046     		mov	r0, r2
 1188 003a 9847     		blx	r3
 1189              	.LVL13:
 1190              	.L67:
 1191              		.loc 1 371 0
 1192 003c FFF7FEFF 		bl	_dbg_check_leave_isr
 1193 0040 FFF7FEFF 		bl	_port_irq_epilogue
ARM GAS  C:\Users\Megaport\AppData\Local\Temp\ccttL01Q.s 			page 22


 1194              		.loc 1 372 0
 1195 0044 00BF     		nop
 1196 0046 054B     		ldr	r3, .L69
 1197 0048 019A     		ldr	r2, [sp, #4]
 1198 004a 1B68     		ldr	r3, [r3]
 1199 004c 9A42     		cmp	r2, r3
 1200 004e 01D0     		beq	.L68
 1201 0050 FFF7FEFF 		bl	__stack_chk_fail
 1202              	.L68:
 1203 0054 03B0     		add	sp, sp, #12
 1204              		.cfi_def_cfa_offset 4
 1205              		@ sp needed
 1206 0056 5DF804FB 		ldr	pc, [sp], #4
 1207              	.L70:
 1208 005a 00BF     		.align	2
 1209              	.L69:
 1210 005c 00000000 		.word	__stack_chk_guard
 1211 0060 00640240 		.word	1073898496
 1212 0064 00000000 		.word	dma_isr_redir
 1213              		.cfi_endproc
 1214              	.LFE269:
 1215              		.size	Vector150, .-Vector150
 1216              		.section	.text.Vector154,"ax",%progbits
 1217              		.align	1
 1218              		.p2align 4,,15
 1219              		.global	Vector154
 1220              		.syntax unified
 1221              		.thumb
 1222              		.thumb_func
 1223              		.fpu fpv4-sp-d16
 1224              		.type	Vector154, %function
 1225              	Vector154:
 1226              	.LFB270:
 1227              		.loc 1 379 0
 1228              		.cfi_startproc
 1229              		@ args = 0, pretend = 0, frame = 8
 1230              		@ frame_needed = 0, uses_anonymous_args = 0
 1231 0000 00B5     		push	{lr}
 1232              		.cfi_def_cfa_offset 4
 1233              		.cfi_offset 14, -4
 1234 0002 83B0     		sub	sp, sp, #12
 1235              		.cfi_def_cfa_offset 16
 1236              		.loc 1 379 0
 1237 0004 154B     		ldr	r3, .L74
 1238 0006 1B68     		ldr	r3, [r3]
 1239 0008 0193     		str	r3, [sp, #4]
 1240              		.loc 1 382 0
 1241 000a FFF7FEFF 		bl	_stats_increase_irq
 1242 000e FFF7FEFF 		bl	_dbg_check_enter_isr
 1243              		.loc 1 384 0
 1244 0012 134B     		ldr	r3, .L74+4
 1245 0014 5B68     		ldr	r3, [r3, #4]
 1246 0016 1B0C     		lsrs	r3, r3, #16
 1247 0018 03F03D03 		and	r3, r3, #61
 1248 001c 0093     		str	r3, [sp]
 1249              		.loc 1 385 0
 1250 001e 104A     		ldr	r2, .L74+4
ARM GAS  C:\Users\Megaport\AppData\Local\Temp\ccttL01Q.s 			page 23


 1251 0020 009B     		ldr	r3, [sp]
 1252 0022 1B04     		lsls	r3, r3, #16
 1253 0024 D360     		str	r3, [r2, #12]
 1254              		.loc 1 386 0
 1255 0026 0F4B     		ldr	r3, .L74+8
 1256 0028 1B6F     		ldr	r3, [r3, #112]
 1257 002a 002B     		cmp	r3, #0
 1258 002c 06D0     		beq	.L72
 1259              		.loc 1 387 0
 1260 002e 0D4B     		ldr	r3, .L74+8
 1261 0030 1B6F     		ldr	r3, [r3, #112]
 1262 0032 0C4A     		ldr	r2, .L74+8
 1263 0034 526F     		ldr	r2, [r2, #116]
 1264 0036 0099     		ldr	r1, [sp]
 1265 0038 1046     		mov	r0, r2
 1266 003a 9847     		blx	r3
 1267              	.LVL14:
 1268              	.L72:
 1269              		.loc 1 389 0
 1270 003c FFF7FEFF 		bl	_dbg_check_leave_isr
 1271 0040 FFF7FEFF 		bl	_port_irq_epilogue
 1272              		.loc 1 390 0
 1273 0044 00BF     		nop
 1274 0046 054B     		ldr	r3, .L74
 1275 0048 019A     		ldr	r2, [sp, #4]
 1276 004a 1B68     		ldr	r3, [r3]
 1277 004c 9A42     		cmp	r2, r3
 1278 004e 01D0     		beq	.L73
 1279 0050 FFF7FEFF 		bl	__stack_chk_fail
 1280              	.L73:
 1281 0054 03B0     		add	sp, sp, #12
 1282              		.cfi_def_cfa_offset 4
 1283              		@ sp needed
 1284 0056 5DF804FB 		ldr	pc, [sp], #4
 1285              	.L75:
 1286 005a 00BF     		.align	2
 1287              	.L74:
 1288 005c 00000000 		.word	__stack_chk_guard
 1289 0060 00640240 		.word	1073898496
 1290 0064 00000000 		.word	dma_isr_redir
 1291              		.cfi_endproc
 1292              	.LFE270:
 1293              		.size	Vector154, .-Vector154
 1294              		.section	.text.Vector158,"ax",%progbits
 1295              		.align	1
 1296              		.p2align 4,,15
 1297              		.global	Vector158
 1298              		.syntax unified
 1299              		.thumb
 1300              		.thumb_func
 1301              		.fpu fpv4-sp-d16
 1302              		.type	Vector158, %function
 1303              	Vector158:
 1304              	.LFB271:
 1305              		.loc 1 397 0
 1306              		.cfi_startproc
 1307              		@ args = 0, pretend = 0, frame = 8
ARM GAS  C:\Users\Megaport\AppData\Local\Temp\ccttL01Q.s 			page 24


 1308              		@ frame_needed = 0, uses_anonymous_args = 0
 1309 0000 00B5     		push	{lr}
 1310              		.cfi_def_cfa_offset 4
 1311              		.cfi_offset 14, -4
 1312 0002 83B0     		sub	sp, sp, #12
 1313              		.cfi_def_cfa_offset 16
 1314              		.loc 1 397 0
 1315 0004 154B     		ldr	r3, .L79
 1316 0006 1B68     		ldr	r3, [r3]
 1317 0008 0193     		str	r3, [sp, #4]
 1318              		.loc 1 400 0
 1319 000a FFF7FEFF 		bl	_stats_increase_irq
 1320 000e FFF7FEFF 		bl	_dbg_check_enter_isr
 1321              		.loc 1 402 0
 1322 0012 134B     		ldr	r3, .L79+4
 1323 0014 5B68     		ldr	r3, [r3, #4]
 1324 0016 9B0D     		lsrs	r3, r3, #22
 1325 0018 03F03D03 		and	r3, r3, #61
 1326 001c 0093     		str	r3, [sp]
 1327              		.loc 1 403 0
 1328 001e 104A     		ldr	r2, .L79+4
 1329 0020 009B     		ldr	r3, [sp]
 1330 0022 9B05     		lsls	r3, r3, #22
 1331 0024 D360     		str	r3, [r2, #12]
 1332              		.loc 1 404 0
 1333 0026 0F4B     		ldr	r3, .L79+8
 1334 0028 9B6F     		ldr	r3, [r3, #120]
 1335 002a 002B     		cmp	r3, #0
 1336 002c 06D0     		beq	.L77
 1337              		.loc 1 405 0
 1338 002e 0D4B     		ldr	r3, .L79+8
 1339 0030 9B6F     		ldr	r3, [r3, #120]
 1340 0032 0C4A     		ldr	r2, .L79+8
 1341 0034 D26F     		ldr	r2, [r2, #124]
 1342 0036 0099     		ldr	r1, [sp]
 1343 0038 1046     		mov	r0, r2
 1344 003a 9847     		blx	r3
 1345              	.LVL15:
 1346              	.L77:
 1347              		.loc 1 407 0
 1348 003c FFF7FEFF 		bl	_dbg_check_leave_isr
 1349 0040 FFF7FEFF 		bl	_port_irq_epilogue
 1350              		.loc 1 408 0
 1351 0044 00BF     		nop
 1352 0046 054B     		ldr	r3, .L79
 1353 0048 019A     		ldr	r2, [sp, #4]
 1354 004a 1B68     		ldr	r3, [r3]
 1355 004c 9A42     		cmp	r2, r3
 1356 004e 01D0     		beq	.L78
 1357 0050 FFF7FEFF 		bl	__stack_chk_fail
 1358              	.L78:
 1359 0054 03B0     		add	sp, sp, #12
 1360              		.cfi_def_cfa_offset 4
 1361              		@ sp needed
 1362 0056 5DF804FB 		ldr	pc, [sp], #4
 1363              	.L80:
 1364 005a 00BF     		.align	2
ARM GAS  C:\Users\Megaport\AppData\Local\Temp\ccttL01Q.s 			page 25


 1365              	.L79:
 1366 005c 00000000 		.word	__stack_chk_guard
 1367 0060 00640240 		.word	1073898496
 1368 0064 00000000 		.word	dma_isr_redir
 1369              		.cfi_endproc
 1370              	.LFE271:
 1371              		.size	Vector158, .-Vector158
 1372              		.section	.text.dmaInit,"ax",%progbits
 1373              		.align	1
 1374              		.p2align 4,,15
 1375              		.global	dmaInit
 1376              		.syntax unified
 1377              		.thumb
 1378              		.thumb_func
 1379              		.fpu fpv4-sp-d16
 1380              		.type	dmaInit, %function
 1381              	dmaInit:
 1382              	.LFB272:
 1383              		.loc 1 419 0
 1384              		.cfi_startproc
 1385              		@ args = 0, pretend = 0, frame = 8
 1386              		@ frame_needed = 0, uses_anonymous_args = 0
 1387 0000 00B5     		push	{lr}
 1388              		.cfi_def_cfa_offset 4
 1389              		.cfi_offset 14, -4
 1390 0002 83B0     		sub	sp, sp, #12
 1391              		.cfi_def_cfa_offset 16
 1392              		.loc 1 419 0
 1393 0004 1C4B     		ldr	r3, .L85
 1394 0006 1B68     		ldr	r3, [r3]
 1395 0008 0193     		str	r3, [sp, #4]
 1396              		.loc 1 422 0
 1397 000a 1C4B     		ldr	r3, .L85+4
 1398 000c 0022     		movs	r2, #0
 1399 000e 1A60     		str	r2, [r3]
 1400              		.loc 1 423 0
 1401 0010 0023     		movs	r3, #0
 1402 0012 0093     		str	r3, [sp]
 1403 0014 11E0     		b	.L82
 1404              	.L83:
 1405              		.loc 1 424 0 discriminator 3
 1406 0016 1A49     		ldr	r1, .L85+8
 1407 0018 009A     		ldr	r2, [sp]
 1408 001a 1346     		mov	r3, r2
 1409 001c 5B00     		lsls	r3, r3, #1
 1410 001e 1344     		add	r3, r3, r2
 1411 0020 9B00     		lsls	r3, r3, #2
 1412 0022 0B44     		add	r3, r3, r1
 1413 0024 1B68     		ldr	r3, [r3]
 1414 0026 0022     		movs	r2, #0
 1415 0028 1A60     		str	r2, [r3]
 1416              		.loc 1 425 0 discriminator 3
 1417 002a 164A     		ldr	r2, .L85+12
 1418 002c 009B     		ldr	r3, [sp]
 1419 002e 0021     		movs	r1, #0
 1420 0030 42F83310 		str	r1, [r2, r3, lsl #3]
 1421              		.loc 1 423 0 discriminator 3
ARM GAS  C:\Users\Megaport\AppData\Local\Temp\ccttL01Q.s 			page 26


 1422 0034 009B     		ldr	r3, [sp]
 1423 0036 0133     		adds	r3, r3, #1
 1424 0038 0093     		str	r3, [sp]
 1425              	.L82:
 1426              		.loc 1 423 0 is_stmt 0 discriminator 1
 1427 003a 009B     		ldr	r3, [sp]
 1428 003c 0F2B     		cmp	r3, #15
 1429 003e EADD     		ble	.L83
 1430              		.loc 1 427 0 is_stmt 1
 1431 0040 114B     		ldr	r3, .L85+16
 1432 0042 4FF0FF32 		mov	r2, #-1
 1433 0046 9A60     		str	r2, [r3, #8]
 1434              		.loc 1 428 0
 1435 0048 0F4B     		ldr	r3, .L85+16
 1436 004a 4FF0FF32 		mov	r2, #-1
 1437 004e DA60     		str	r2, [r3, #12]
 1438              		.loc 1 429 0
 1439 0050 0E4B     		ldr	r3, .L85+20
 1440 0052 4FF0FF32 		mov	r2, #-1
 1441 0056 9A60     		str	r2, [r3, #8]
 1442              		.loc 1 430 0
 1443 0058 0C4B     		ldr	r3, .L85+20
 1444 005a 4FF0FF32 		mov	r2, #-1
 1445 005e DA60     		str	r2, [r3, #12]
 1446              		.loc 1 431 0
 1447 0060 00BF     		nop
 1448 0062 054B     		ldr	r3, .L85
 1449 0064 019A     		ldr	r2, [sp, #4]
 1450 0066 1B68     		ldr	r3, [r3]
 1451 0068 9A42     		cmp	r2, r3
 1452 006a 01D0     		beq	.L84
 1453 006c FFF7FEFF 		bl	__stack_chk_fail
 1454              	.L84:
 1455 0070 03B0     		add	sp, sp, #12
 1456              		.cfi_def_cfa_offset 4
 1457              		@ sp needed
 1458 0072 5DF804FB 		ldr	pc, [sp], #4
 1459              	.L86:
 1460 0076 00BF     		.align	2
 1461              	.L85:
 1462 0078 00000000 		.word	__stack_chk_guard
 1463 007c 00000000 		.word	dma_streams_mask
 1464 0080 00000000 		.word	_stm32_dma_streams
 1465 0084 00000000 		.word	dma_isr_redir
 1466 0088 00600240 		.word	1073897472
 1467 008c 00640240 		.word	1073898496
 1468              		.cfi_endproc
 1469              	.LFE272:
 1470              		.size	dmaInit, .-dmaInit
 1471              		.section	.text.dmaStreamAllocate,"ax",%progbits
 1472              		.align	1
 1473              		.p2align 4,,15
 1474              		.global	dmaStreamAllocate
 1475              		.syntax unified
 1476              		.thumb
 1477              		.thumb_func
 1478              		.fpu fpv4-sp-d16
ARM GAS  C:\Users\Megaport\AppData\Local\Temp\ccttL01Q.s 			page 27


 1479              		.type	dmaStreamAllocate, %function
 1480              	dmaStreamAllocate:
 1481              	.LFB273:
 1482              		.loc 1 460 0
 1483              		.cfi_startproc
 1484              		@ args = 0, pretend = 0, frame = 24
 1485              		@ frame_needed = 0, uses_anonymous_args = 0
 1486 0000 00B5     		push	{lr}
 1487              		.cfi_def_cfa_offset 4
 1488              		.cfi_offset 14, -4
 1489 0002 87B0     		sub	sp, sp, #28
 1490              		.cfi_def_cfa_offset 32
 1491 0004 0390     		str	r0, [sp, #12]
 1492 0006 0291     		str	r1, [sp, #8]
 1493 0008 0192     		str	r2, [sp, #4]
 1494 000a 0093     		str	r3, [sp]
 1495              		.loc 1 460 0
 1496 000c 3D4B     		ldr	r3, .L96
 1497 000e 1B68     		ldr	r3, [r3]
 1498 0010 0593     		str	r3, [sp, #20]
 1499              		.loc 1 462 0
 1500 0012 039B     		ldr	r3, [sp, #12]
 1501 0014 002B     		cmp	r3, #0
 1502 0016 02D1     		bne	.L88
 1503              		.loc 1 462 0 is_stmt 0 discriminator 2
 1504 0018 3B48     		ldr	r0, .L96+4
 1505 001a FFF7FEFF 		bl	chSysHalt
 1506              	.L88:
 1507              		.loc 1 465 0 is_stmt 1
 1508 001e 039B     		ldr	r3, [sp, #12]
 1509 0020 5B7A     		ldrb	r3, [r3, #9]	@ zero_extendqisi2
 1510 0022 1A46     		mov	r2, r3
 1511 0024 0123     		movs	r3, #1
 1512 0026 9340     		lsls	r3, r3, r2
 1513 0028 1A46     		mov	r2, r3
 1514 002a 384B     		ldr	r3, .L96+8
 1515 002c 1B68     		ldr	r3, [r3]
 1516 002e 1340     		ands	r3, r3, r2
 1517 0030 002B     		cmp	r3, #0
 1518 0032 01D0     		beq	.L89
 1519              		.loc 1 466 0
 1520 0034 0123     		movs	r3, #1
 1521 0036 5AE0     		b	.L90
 1522              	.L89:
 1523              		.loc 1 469 0
 1524 0038 039B     		ldr	r3, [sp, #12]
 1525 003a 5B7A     		ldrb	r3, [r3, #9]	@ zero_extendqisi2
 1526 003c 1946     		mov	r1, r3
 1527 003e 344A     		ldr	r2, .L96+12
 1528 0040 019B     		ldr	r3, [sp, #4]
 1529 0042 42F83130 		str	r3, [r2, r1, lsl #3]
 1530              		.loc 1 470 0
 1531 0046 039B     		ldr	r3, [sp, #12]
 1532 0048 5B7A     		ldrb	r3, [r3, #9]	@ zero_extendqisi2
 1533 004a 314A     		ldr	r2, .L96+12
 1534 004c DB00     		lsls	r3, r3, #3
 1535 004e 1344     		add	r3, r3, r2
ARM GAS  C:\Users\Megaport\AppData\Local\Temp\ccttL01Q.s 			page 28


 1536 0050 009A     		ldr	r2, [sp]
 1537 0052 5A60     		str	r2, [r3, #4]
 1538              		.loc 1 471 0
 1539 0054 039B     		ldr	r3, [sp, #12]
 1540 0056 5B7A     		ldrb	r3, [r3, #9]	@ zero_extendqisi2
 1541 0058 1A46     		mov	r2, r3
 1542 005a 0123     		movs	r3, #1
 1543 005c 9340     		lsls	r3, r3, r2
 1544 005e 1A46     		mov	r2, r3
 1545 0060 2A4B     		ldr	r3, .L96+8
 1546 0062 1B68     		ldr	r3, [r3]
 1547 0064 1343     		orrs	r3, r3, r2
 1548 0066 294A     		ldr	r2, .L96+8
 1549 0068 1360     		str	r3, [r2]
 1550              		.loc 1 474 0
 1551 006a 284B     		ldr	r3, .L96+8
 1552 006c 1B68     		ldr	r3, [r3]
 1553 006e DBB2     		uxtb	r3, r3
 1554 0070 002B     		cmp	r3, #0
 1555 0072 05D0     		beq	.L91
 1556              		.loc 1 475 0
 1557 0074 274B     		ldr	r3, .L96+16
 1558 0076 1B6B     		ldr	r3, [r3, #48]
 1559 0078 264A     		ldr	r2, .L96+16
 1560 007a 43F40013 		orr	r3, r3, #2097152
 1561 007e 1363     		str	r3, [r2, #48]
 1562              	.L91:
 1563              		.loc 1 476 0
 1564 0080 224B     		ldr	r3, .L96+8
 1565 0082 1B68     		ldr	r3, [r3]
 1566 0084 03F47F43 		and	r3, r3, #65280
 1567 0088 002B     		cmp	r3, #0
 1568 008a 05D0     		beq	.L92
 1569              		.loc 1 477 0
 1570 008c 214B     		ldr	r3, .L96+16
 1571 008e 1B6B     		ldr	r3, [r3, #48]
 1572 0090 204A     		ldr	r2, .L96+16
 1573 0092 43F48003 		orr	r3, r3, #4194304
 1574 0096 1363     		str	r3, [r2, #48]
 1575              	.L92:
 1576              		.loc 1 480 0
 1577 0098 039B     		ldr	r3, [sp, #12]
 1578 009a 1B68     		ldr	r3, [r3]
 1579 009c 1A68     		ldr	r2, [r3]
 1580 009e 039B     		ldr	r3, [sp, #12]
 1581 00a0 1B68     		ldr	r3, [r3]
 1582 00a2 22F01F02 		bic	r2, r2, #31
 1583 00a6 1A60     		str	r2, [r3]
 1584 00a8 00BF     		nop
 1585              	.L93:
 1586              		.loc 1 480 0 is_stmt 0 discriminator 2
 1587 00aa 039B     		ldr	r3, [sp, #12]
 1588 00ac 1B68     		ldr	r3, [r3]
 1589 00ae 1B68     		ldr	r3, [r3]
 1590 00b0 03F00103 		and	r3, r3, #1
 1591 00b4 002B     		cmp	r3, #0
 1592 00b6 F8D1     		bne	.L93
ARM GAS  C:\Users\Megaport\AppData\Local\Temp\ccttL01Q.s 			page 29


 1593              		.loc 1 480 0 discriminator 3
 1594 00b8 039B     		ldr	r3, [sp, #12]
 1595 00ba 1B7A     		ldrb	r3, [r3, #8]	@ zero_extendqisi2
 1596 00bc 1A46     		mov	r2, r3
 1597 00be 3D23     		movs	r3, #61
 1598 00c0 03FA02F2 		lsl	r2, r3, r2
 1599 00c4 039B     		ldr	r3, [sp, #12]
 1600 00c6 5B68     		ldr	r3, [r3, #4]
 1601 00c8 1A60     		str	r2, [r3]
 1602              		.loc 1 481 0 is_stmt 1 discriminator 3
 1603 00ca 039B     		ldr	r3, [sp, #12]
 1604 00cc 1B68     		ldr	r3, [r3]
 1605 00ce 0022     		movs	r2, #0
 1606 00d0 1A60     		str	r2, [r3]
 1607              		.loc 1 482 0 discriminator 3
 1608 00d2 039B     		ldr	r3, [sp, #12]
 1609 00d4 1B68     		ldr	r3, [r3]
 1610 00d6 2122     		movs	r2, #33
 1611 00d8 5A61     		str	r2, [r3, #20]
 1612              		.loc 1 485 0 discriminator 3
 1613 00da 019B     		ldr	r3, [sp, #4]
 1614 00dc 002B     		cmp	r3, #0
 1615 00de 05D0     		beq	.L94
 1616              		.loc 1 486 0
 1617 00e0 039B     		ldr	r3, [sp, #12]
 1618 00e2 9B7A     		ldrb	r3, [r3, #10]	@ zero_extendqisi2
 1619 00e4 0299     		ldr	r1, [sp, #8]
 1620 00e6 1846     		mov	r0, r3
 1621 00e8 FFF7FEFF 		bl	nvicEnableVector
 1622              	.L94:
 1623              		.loc 1 488 0
 1624 00ec 0023     		movs	r3, #0
 1625              	.L90:
 1626              		.loc 1 489 0
 1627 00ee 1846     		mov	r0, r3
 1628 00f0 044B     		ldr	r3, .L96
 1629 00f2 059A     		ldr	r2, [sp, #20]
 1630 00f4 1B68     		ldr	r3, [r3]
 1631 00f6 9A42     		cmp	r2, r3
 1632 00f8 01D0     		beq	.L95
 1633 00fa FFF7FEFF 		bl	__stack_chk_fail
 1634              	.L95:
 1635 00fe 07B0     		add	sp, sp, #28
 1636              		.cfi_def_cfa_offset 4
 1637              		@ sp needed
 1638 0100 5DF804FB 		ldr	pc, [sp], #4
 1639              	.L97:
 1640              		.align	2
 1641              	.L96:
 1642 0104 00000000 		.word	__stack_chk_guard
 1643 0108 00000000 		.word	__func__.9922
 1644 010c 00000000 		.word	dma_streams_mask
 1645 0110 00000000 		.word	dma_isr_redir
 1646 0114 00380240 		.word	1073887232
 1647              		.cfi_endproc
 1648              	.LFE273:
 1649              		.size	dmaStreamAllocate, .-dmaStreamAllocate
ARM GAS  C:\Users\Megaport\AppData\Local\Temp\ccttL01Q.s 			page 30


 1650              		.section	.text.dmaStreamRelease,"ax",%progbits
 1651              		.align	1
 1652              		.p2align 4,,15
 1653              		.global	dmaStreamRelease
 1654              		.syntax unified
 1655              		.thumb
 1656              		.thumb_func
 1657              		.fpu fpv4-sp-d16
 1658              		.type	dmaStreamRelease, %function
 1659              	dmaStreamRelease:
 1660              	.LFB274:
 1661              		.loc 1 504 0
 1662              		.cfi_startproc
 1663              		@ args = 0, pretend = 0, frame = 16
 1664              		@ frame_needed = 0, uses_anonymous_args = 0
 1665 0000 00B5     		push	{lr}
 1666              		.cfi_def_cfa_offset 4
 1667              		.cfi_offset 14, -4
 1668 0002 85B0     		sub	sp, sp, #20
 1669              		.cfi_def_cfa_offset 24
 1670 0004 0190     		str	r0, [sp, #4]
 1671              		.loc 1 504 0
 1672 0006 254B     		ldr	r3, .L106
 1673 0008 1B68     		ldr	r3, [r3]
 1674 000a 0393     		str	r3, [sp, #12]
 1675              		.loc 1 506 0
 1676 000c 019B     		ldr	r3, [sp, #4]
 1677 000e 002B     		cmp	r3, #0
 1678 0010 02D1     		bne	.L104
 1679              		.loc 1 506 0 is_stmt 0 discriminator 2
 1680 0012 2348     		ldr	r0, .L106+4
 1681 0014 FFF7FEFF 		bl	chSysHalt
 1682              	.L104:
 1683              		.loc 1 509 0 is_stmt 1 discriminator 1
 1684 0018 019B     		ldr	r3, [sp, #4]
 1685 001a 5B7A     		ldrb	r3, [r3, #9]	@ zero_extendqisi2
 1686 001c 1A46     		mov	r2, r3
 1687 001e 0123     		movs	r3, #1
 1688 0020 9340     		lsls	r3, r3, r2
 1689 0022 1A46     		mov	r2, r3
 1690 0024 1F4B     		ldr	r3, .L106+8
 1691 0026 1B68     		ldr	r3, [r3]
 1692 0028 1340     		ands	r3, r3, r2
 1693 002a 002B     		cmp	r3, #0
 1694 002c 02D1     		bne	.L100
 1695              		.loc 1 509 0 is_stmt 0 discriminator 2
 1696 002e 1C48     		ldr	r0, .L106+4
 1697 0030 FFF7FEFF 		bl	chSysHalt
 1698              	.L100:
 1699              		.loc 1 513 0 is_stmt 1
 1700 0034 019B     		ldr	r3, [sp, #4]
 1701 0036 9B7A     		ldrb	r3, [r3, #10]	@ zero_extendqisi2
 1702 0038 1846     		mov	r0, r3
 1703 003a FFF7FEFF 		bl	nvicDisableVector
 1704              		.loc 1 516 0
 1705 003e 019B     		ldr	r3, [sp, #4]
 1706 0040 5B7A     		ldrb	r3, [r3, #9]	@ zero_extendqisi2
ARM GAS  C:\Users\Megaport\AppData\Local\Temp\ccttL01Q.s 			page 31


 1707 0042 1A46     		mov	r2, r3
 1708 0044 0123     		movs	r3, #1
 1709 0046 9340     		lsls	r3, r3, r2
 1710 0048 DB43     		mvns	r3, r3
 1711 004a 1A46     		mov	r2, r3
 1712 004c 154B     		ldr	r3, .L106+8
 1713 004e 1B68     		ldr	r3, [r3]
 1714 0050 1340     		ands	r3, r3, r2
 1715 0052 144A     		ldr	r2, .L106+8
 1716 0054 1360     		str	r3, [r2]
 1717              		.loc 1 519 0
 1718 0056 134B     		ldr	r3, .L106+8
 1719 0058 1B68     		ldr	r3, [r3]
 1720 005a DBB2     		uxtb	r3, r3
 1721 005c 002B     		cmp	r3, #0
 1722 005e 05D1     		bne	.L101
 1723              		.loc 1 520 0
 1724 0060 114B     		ldr	r3, .L106+12
 1725 0062 1B6B     		ldr	r3, [r3, #48]
 1726 0064 104A     		ldr	r2, .L106+12
 1727 0066 23F40013 		bic	r3, r3, #2097152
 1728 006a 1363     		str	r3, [r2, #48]
 1729              	.L101:
 1730              		.loc 1 521 0
 1731 006c 0D4B     		ldr	r3, .L106+8
 1732 006e 1B68     		ldr	r3, [r3]
 1733 0070 03F47F43 		and	r3, r3, #65280
 1734 0074 002B     		cmp	r3, #0
 1735 0076 05D1     		bne	.L105
 1736              		.loc 1 522 0
 1737 0078 0B4B     		ldr	r3, .L106+12
 1738 007a 1B6B     		ldr	r3, [r3, #48]
 1739 007c 0A4A     		ldr	r2, .L106+12
 1740 007e 23F48003 		bic	r3, r3, #4194304
 1741 0082 1363     		str	r3, [r2, #48]
 1742              	.L105:
 1743              		.loc 1 523 0
 1744 0084 00BF     		nop
 1745 0086 054B     		ldr	r3, .L106
 1746 0088 039A     		ldr	r2, [sp, #12]
 1747 008a 1B68     		ldr	r3, [r3]
 1748 008c 9A42     		cmp	r2, r3
 1749 008e 01D0     		beq	.L103
 1750 0090 FFF7FEFF 		bl	__stack_chk_fail
 1751              	.L103:
 1752 0094 05B0     		add	sp, sp, #20
 1753              		.cfi_def_cfa_offset 4
 1754              		@ sp needed
 1755 0096 5DF804FB 		ldr	pc, [sp], #4
 1756              	.L107:
 1757 009a 00BF     		.align	2
 1758              	.L106:
 1759 009c 00000000 		.word	__stack_chk_guard
 1760 00a0 00000000 		.word	__func__.9929
 1761 00a4 00000000 		.word	dma_streams_mask
 1762 00a8 00380240 		.word	1073887232
 1763              		.cfi_endproc
ARM GAS  C:\Users\Megaport\AppData\Local\Temp\ccttL01Q.s 			page 32


 1764              	.LFE274:
 1765              		.size	dmaStreamRelease, .-dmaStreamRelease
 1766              		.section	.rodata.__func__.9922,"a",%progbits
 1767              		.align	2
 1768              		.type	__func__.9922, %object
 1769              		.size	__func__.9922, 18
 1770              	__func__.9922:
 1771 0000 646D6153 		.ascii	"dmaStreamAllocate\000"
 1771      74726561 
 1771      6D416C6C 
 1771      6F636174 
 1771      6500
 1772              		.section	.rodata.__func__.9929,"a",%progbits
 1773              		.align	2
 1774              		.type	__func__.9929, %object
 1775              		.size	__func__.9929, 17
 1776              	__func__.9929:
 1777 0000 646D6153 		.ascii	"dmaStreamRelease\000"
 1777      74726561 
 1777      6D52656C 
 1777      65617365 
 1777      00
 1778              		.text
 1779              	.Letext0:
 1780              		.file 2 "c:\\users\\megaport\\documents\\eclipse_e-puck2\\eclipse_e-puck2\\tools\\gcc-arm-none-eab
 1781              		.file 3 "c:\\users\\megaport\\documents\\eclipse_e-puck2\\eclipse_e-puck2\\tools\\gcc-arm-none-eab
 1782              		.file 4 "c:\\users\\megaport\\documents\\eclipse_e-puck2\\eclipse_e-puck2\\tools\\gcc-arm-none-eab
 1783              		.file 5 "../e-puck2_main-processor/ChibiOS//os/rt/ports/ARMCMx/compilers/GCC/chtypes.h"
 1784              		.file 6 "../e-puck2_main-processor/ChibiOS//os/rt/include/chsystypes.h"
 1785              		.file 7 "../e-puck2_main-processor/ChibiOS//os/rt/include/chschd.h"
 1786              		.file 8 "../e-puck2_main-processor/ChibiOS//os/ext/CMSIS/include/core_cm4.h"
 1787              		.file 9 "../e-puck2_main-processor/ChibiOS//os/ext/CMSIS/ST/system_stm32f4xx.h"
 1788              		.file 10 "../e-puck2_main-processor/ChibiOS//os/ext/CMSIS/ST/stm32f407xx.h"
 1789              		.file 11 "../e-puck2_main-processor/ChibiOS//os/rt/ports/ARMCMx/chcore.h"
 1790              		.file 12 "../e-puck2_main-processor/ChibiOS//os/rt/ports/ARMCMx/chcore_v7m.h"
 1791              		.file 13 "../e-puck2_main-processor/ChibiOS//os/rt/include/chdebug.h"
 1792              		.file 14 "../e-puck2_main-processor/ChibiOS//os/rt/include/chtm.h"
 1793              		.file 15 "../e-puck2_main-processor/ChibiOS//os/rt/include/chstats.h"
 1794              		.file 16 "../e-puck2_main-processor/ChibiOS//os/rt/include/chsem.h"
 1795              		.file 17 "../e-puck2_main-processor/ChibiOS//os/rt/include/chmtx.h"
 1796              		.file 18 "../e-puck2_main-processor/ChibiOS//os/rt/include/chregistry.h"
 1797              		.file 19 "../e-puck2_main-processor/ChibiOS//os/rt/include/chevents.h"
 1798              		.file 20 "../e-puck2_main-processor/ChibiOS//os/rt/include/chqueues.h"
 1799              		.file 21 "../e-puck2_main-processor/ChibiOS//os/hal/ports/STM32/STM32F4xx/stm32_dma.h"
 1800              		.file 22 "../e-puck2_main-processor/ChibiOS//os/hal/include/hal_ioblock.h"
 1801              		.file 23 "../e-puck2_main-processor/ChibiOS//os/hal/ports/STM32/LLD/GPIOv2/pal_lld.h"
 1802              		.file 24 "../e-puck2_main-processor/ChibiOS//os/hal/include/adc.h"
 1803              		.file 25 "../e-puck2_main-processor/ChibiOS//os/hal/ports/STM32/STM32F4xx/adc_lld.h"
 1804              		.file 26 "../e-puck2_main-processor/ChibiOS//os/hal/include/can.h"
 1805              		.file 27 "../e-puck2_main-processor/ChibiOS//os/hal/ports/STM32/LLD/can_lld.h"
 1806              		.file 28 "../e-puck2_main-processor/ChibiOS//os/hal/include/dac.h"
 1807              		.file 29 "../e-puck2_main-processor/ChibiOS//os/hal/ports/STM32/LLD/DACv1/dac_lld.h"
 1808              		.file 30 "../e-puck2_main-processor/ChibiOS//os/hal/include/ext.h"
 1809              		.file 31 "../e-puck2_main-processor/ChibiOS//os/hal/ports/STM32/LLD/ext_lld.h"
 1810              		.file 32 "../e-puck2_main-processor/ChibiOS//os/hal/include/gpt.h"
 1811              		.file 33 "../e-puck2_main-processor/ChibiOS//os/hal/ports/STM32/LLD/TIMv1/gpt_lld.h"
 1812              		.file 34 "../e-puck2_main-processor/ChibiOS//os/hal/ports/STM32/LLD/TIMv1/stm32_tim.h"
ARM GAS  C:\Users\Megaport\AppData\Local\Temp\ccttL01Q.s 			page 33


 1813              		.file 35 "../e-puck2_main-processor/ChibiOS//os/hal/include/i2c.h"
 1814              		.file 36 "../e-puck2_main-processor/ChibiOS//os/hal/ports/STM32/LLD/I2Cv1/i2c_lld.h"
 1815              		.file 37 "../e-puck2_main-processor/ChibiOS//os/hal/include/i2s.h"
 1816              		.file 38 "../e-puck2_main-processor/ChibiOS//os/hal/ports/STM32/LLD/SPIv1/i2s_lld.h"
 1817              		.file 39 "../e-puck2_main-processor/ChibiOS//os/hal/include/pwm.h"
 1818              		.file 40 "../e-puck2_main-processor/ChibiOS//os/hal/ports/STM32/LLD/TIMv1/pwm_lld.h"
 1819              		.file 41 "../e-puck2_main-processor/ChibiOS//os/hal/include/serial.h"
 1820              		.file 42 "../e-puck2_main-processor/ChibiOS//os/hal/ports/STM32/LLD/USARTv1/serial_lld.h"
 1821              		.file 43 "../e-puck2_main-processor/ChibiOS//os/hal/include/sdc.h"
 1822              		.file 44 "../e-puck2_main-processor/ChibiOS//os/hal/ports/STM32/LLD/sdc_lld.h"
 1823              		.file 45 "../e-puck2_main-processor/ChibiOS//os/hal/include/spi.h"
 1824              		.file 46 "../e-puck2_main-processor/ChibiOS//os/hal/ports/STM32/LLD/SPIv1/spi_lld.h"
 1825              		.file 47 "../e-puck2_main-processor/ChibiOS//os/hal/include/usb.h"
 1826              		.file 48 "../e-puck2_main-processor/ChibiOS//os/hal/ports/STM32/LLD/OTGv1/usb_lld.h"
 1827              		.file 49 "../e-puck2_main-processor/ChibiOS//os/hal/ports/STM32/LLD/OTGv1/stm32_otg.h"